ARM GAS  /var/folders/z5/_7t90xy14zq1swjhncg0p5z00000gn/T//ccqpyGtJ.s 			page 1


   1              		.cpu cortex-m7
   2              		.arch armv7e-m
   3              		.fpu fpv5-d16
   4              		.eabi_attribute 28, 1
   5              		.eabi_attribute 20, 1
   6              		.eabi_attribute 21, 1
   7              		.eabi_attribute 23, 3
   8              		.eabi_attribute 24, 1
   9              		.eabi_attribute 25, 1
  10              		.eabi_attribute 26, 1
  11              		.eabi_attribute 30, 4
  12              		.eabi_attribute 34, 1
  13              		.eabi_attribute 18, 4
  14              		.file	"RM-38D.cpp"
  15              		.text
  16              	.Ltext0:
  17              		.cfi_sections	.debug_frame
  18              		.section	.text._ZN5daisy11TimerHandleD2Ev,"axG",%progbits,_ZN5daisy11TimerHandleD5Ev,comdat
  19              		.align	1
  20              		.weak	_ZN5daisy11TimerHandleD2Ev
  21              		.syntax unified
  22              		.thumb
  23              		.thumb_func
  25              	_ZN5daisy11TimerHandleD2Ev:
  26              	.LVL0:
  27              	.LFB576:
  28              		.file 1 "../../libDaisy//src/per/tim.h"
   1:../../libDaisy//src/per/tim.h **** #pragma once
   2:../../libDaisy//src/per/tim.h **** #ifndef DSY_TIM_H
   3:../../libDaisy//src/per/tim.h **** #define DSY_TIM_H
   4:../../libDaisy//src/per/tim.h **** 
   5:../../libDaisy//src/per/tim.h **** #include <cstdint>
   6:../../libDaisy//src/per/tim.h **** 
   7:../../libDaisy//src/per/tim.h **** namespace daisy
   8:../../libDaisy//src/per/tim.h **** {
   9:../../libDaisy//src/per/tim.h **** /** @brief Hardare timer peripheral support.
  10:../../libDaisy//src/per/tim.h ****  ** 
  11:../../libDaisy//src/per/tim.h ****  ** Supports general-function TIM peripherals:
  12:../../libDaisy//src/per/tim.h ****  ** - TIM2, TIM3, TIM4, TIM5
  13:../../libDaisy//src/per/tim.h ****  **
  14:../../libDaisy//src/per/tim.h ****  ** DaisySeed, and many internal peripherals utilize TIM2 for timing/delay purposes.
  15:../../libDaisy//src/per/tim.h ****  ** It is configured to be at the maximum frequency: typically 200MHz or 240MHz (boost) 
  16:../../libDaisy//src/per/tim.h ****  ** for measuring/delaying for very short periods. 
  17:../../libDaisy//src/per/tim.h ****  **
  18:../../libDaisy//src/per/tim.h ****  ** The GetUs/GetMs functions are available for convenience (and backwards compatibility),
  19:../../libDaisy//src/per/tim.h ****  ** but to avoid wrapping errors on math when doing time-delta calculations, using ticks is 
  20:../../libDaisy//src/per/tim.h ****  ** recommended. The data can be converted to the final time-base after getting the difference in t
  21:../../libDaisy//src/per/tim.h ****  ** (Using GetFreq() can be used for these time-base calculations).
  22:../../libDaisy//src/per/tim.h ****  **
  23:../../libDaisy//src/per/tim.h ****  ** User callbacks can be set, and changed at any point during operation. However,
  24:../../libDaisy//src/per/tim.h ****  ** the Config::enable_irq must be set to true when initializing for the interrupts
  25:../../libDaisy//src/per/tim.h ****  ** to turn on and function.
  26:../../libDaisy//src/per/tim.h ****  **
  27:../../libDaisy//src/per/tim.h ****  ** @todo Fix issues with realtime getters, and wrapping of the timer(s).
  28:../../libDaisy//src/per/tim.h ****  **     - This very noticeable with default settings for the 16-bit counters.
  29:../../libDaisy//src/per/tim.h ****  ** @todo Other General purpose timers
  30:../../libDaisy//src/per/tim.h ****  ** @todo Non-internal clock sources
ARM GAS  /var/folders/z5/_7t90xy14zq1swjhncg0p5z00000gn/T//ccqpyGtJ.s 			page 2


  31:../../libDaisy//src/per/tim.h ****  ** @todo Use of the four-tim channels per tim
  32:../../libDaisy//src/per/tim.h ****  **     - PWM, etc.
  33:../../libDaisy//src/per/tim.h ****  **     - InputCapture/OutputCompare, etc.
  34:../../libDaisy//src/per/tim.h ****  ** @todo HRTIM
  35:../../libDaisy//src/per/tim.h ****  ** @todo Advanced timers (TIM1/TIM8)
  36:../../libDaisy//src/per/tim.h ****  ** */
  37:../../libDaisy//src/per/tim.h **** class TimerHandle
  38:../../libDaisy//src/per/tim.h **** {
  39:../../libDaisy//src/per/tim.h ****   public:
  40:../../libDaisy//src/per/tim.h ****     /** @brief Configuration struct for the Peripheral
  41:../../libDaisy//src/per/tim.h ****      *  @note These settings are used during initialization
  42:../../libDaisy//src/per/tim.h ****      *   and changing them afterwards may not have the desired effect.
  43:../../libDaisy//src/per/tim.h ****      */
  44:../../libDaisy//src/per/tim.h ****     struct Config
  45:../../libDaisy//src/per/tim.h ****     {
  46:../../libDaisy//src/per/tim.h ****         /** @brief Hardware Timer to configure, and use. */
  47:../../libDaisy//src/per/tim.h ****         enum class Peripheral
  48:../../libDaisy//src/per/tim.h ****         {
  49:../../libDaisy//src/per/tim.h ****             TIM_2 = 0, /**< 32-bit counter */
  50:../../libDaisy//src/per/tim.h ****             TIM_3,     /**< 16-bit counter */
  51:../../libDaisy//src/per/tim.h ****             TIM_4,     /**< 16-bit counter */
  52:../../libDaisy//src/per/tim.h ****             TIM_5,     /**< 32-bit counter*/
  53:../../libDaisy//src/per/tim.h ****         };
  54:../../libDaisy//src/per/tim.h **** 
  55:../../libDaisy//src/per/tim.h ****         /** @brief Direction of the auto-reload counter. 
  56:../../libDaisy//src/per/tim.h ****          ** @todo Add support for the various  
  57:../../libDaisy//src/per/tim.h ****          ** versions of Up/Down counters.
  58:../../libDaisy//src/per/tim.h ****          ** */
  59:../../libDaisy//src/per/tim.h ****         enum class CounterDir
  60:../../libDaisy//src/per/tim.h ****         {
  61:../../libDaisy//src/per/tim.h ****             UP = 0,
  62:../../libDaisy//src/per/tim.h ****             DOWN,
  63:../../libDaisy//src/per/tim.h ****         };
  64:../../libDaisy//src/per/tim.h **** 
  65:../../libDaisy//src/per/tim.h ****         Peripheral periph; /**< Hardware Peripheral */
  66:../../libDaisy//src/per/tim.h ****         CounterDir dir;    /**< Counter direction */
  67:../../libDaisy//src/per/tim.h **** 
  68:../../libDaisy//src/per/tim.h ****         /** @brief period in ticks at TIM frequency that counter will reset based on dir
  69:../../libDaisy//src/per/tim.h ****          *  @note TIM3 and TIM4 are both 16-bit timers. So the period maximum is 0xffff.
  70:../../libDaisy//src/per/tim.h ****         */
  71:../../libDaisy//src/per/tim.h ****         uint32_t period;
  72:../../libDaisy//src/per/tim.h ****         bool     enable_irq; /**< Enable interrupt for user based callback */
  73:../../libDaisy//src/per/tim.h **** 
  74:../../libDaisy//src/per/tim.h ****         /* @brief Constructor for default states */
  75:../../libDaisy//src/per/tim.h ****         Config()
  76:../../libDaisy//src/per/tim.h ****         : periph(Peripheral::TIM_2),
  77:../../libDaisy//src/per/tim.h ****           dir(CounterDir::UP),
  78:../../libDaisy//src/per/tim.h ****           period(0xffffffff),
  79:../../libDaisy//src/per/tim.h ****           enable_irq(false)
  80:../../libDaisy//src/per/tim.h ****         {
  81:../../libDaisy//src/per/tim.h ****         }
  82:../../libDaisy//src/per/tim.h ****     };
  83:../../libDaisy//src/per/tim.h **** 
  84:../../libDaisy//src/per/tim.h ****     /** @brief Return values for TIM funcitons. */
  85:../../libDaisy//src/per/tim.h ****     enum class Result
  86:../../libDaisy//src/per/tim.h ****     {
  87:../../libDaisy//src/per/tim.h ****         OK,
ARM GAS  /var/folders/z5/_7t90xy14zq1swjhncg0p5z00000gn/T//ccqpyGtJ.s 			page 3


  88:../../libDaisy//src/per/tim.h ****         ERR,
  89:../../libDaisy//src/per/tim.h ****     };
  90:../../libDaisy//src/per/tim.h **** 
  91:../../libDaisy//src/per/tim.h ****     /** @brief User Callback type that will fire at the end of each timer 
  92:../../libDaisy//src/per/tim.h ****      *   period. This requires that Config::enable_irq is true before Init
  93:../../libDaisy//src/per/tim.h ****      *  @param data pointer to arbitrary user-provided data
  94:../../libDaisy//src/per/tim.h ****     */
  95:../../libDaisy//src/per/tim.h ****     typedef void (*PeriodElapsedCallback)(void* data);
  96:../../libDaisy//src/per/tim.h **** 
  97:../../libDaisy//src/per/tim.h ****     TimerHandle() : pimpl_(nullptr) {}
  98:../../libDaisy//src/per/tim.h ****     TimerHandle(const TimerHandle& other) = default;
  99:../../libDaisy//src/per/tim.h ****     TimerHandle& operator=(const TimerHandle& other) = default;
 100:../../libDaisy//src/per/tim.h ****     ~TimerHandle() {}
  29              		.loc 1 100 5 view -0
  30              		.cfi_startproc
  31              		@ args = 0, pretend = 0, frame = 0
  32              		@ frame_needed = 0, uses_anonymous_args = 0
  33              		@ link register save eliminated.
  34              		.loc 1 100 21 is_stmt 0 view .LVU1
  35 0000 7047     		bx	lr
  36              		.cfi_endproc
  37              	.LFE576:
  39              		.weak	_ZN5daisy11TimerHandleD1Ev
  40              		.thumb_set _ZN5daisy11TimerHandleD1Ev,_ZN5daisy11TimerHandleD2Ev
  41              		.section	.text._ZN5daisy12SdmmcHandlerD2Ev,"axG",%progbits,_ZN5daisy12SdmmcHandlerD5Ev,comdat
  42              		.align	1
  43              		.weak	_ZN5daisy12SdmmcHandlerD2Ev
  44              		.syntax unified
  45              		.thumb
  46              		.thumb_func
  48              	_ZN5daisy12SdmmcHandlerD2Ev:
  49              	.LVL1:
  50              	.LFB1689:
  51              		.file 2 "../../libDaisy//src/per/sdmmc.h"
   1:../../libDaisy//src/per/sdmmc.h **** /*
   2:../../libDaisy//src/per/sdmmc.h **** TODO: 
   3:../../libDaisy//src/per/sdmmc.h **** - Implement configuration (currently all settings are fixed).
   4:../../libDaisy//src/per/sdmmc.h **** */
   5:../../libDaisy//src/per/sdmmc.h **** #pragma once
   6:../../libDaisy//src/per/sdmmc.h **** #ifndef DSY_SDMMC_H
   7:../../libDaisy//src/per/sdmmc.h **** #define DSY_SDMMC_H /**< macro */
   8:../../libDaisy//src/per/sdmmc.h **** 
   9:../../libDaisy//src/per/sdmmc.h **** #include <stdint.h>
  10:../../libDaisy//src/per/sdmmc.h **** 
  11:../../libDaisy//src/per/sdmmc.h **** 
  12:../../libDaisy//src/per/sdmmc.h **** namespace daisy
  13:../../libDaisy//src/per/sdmmc.h **** {
  14:../../libDaisy//src/per/sdmmc.h **** /** @ingroup peripheral
  15:../../libDaisy//src/per/sdmmc.h ****     @{
  16:../../libDaisy//src/per/sdmmc.h ****     */
  17:../../libDaisy//src/per/sdmmc.h **** 
  18:../../libDaisy//src/per/sdmmc.h **** /** Configuration for interfacing with SD cards.
  19:../../libDaisy//src/per/sdmmc.h ****  *  Currently only supports operation using FatFS filesystem
  20:../../libDaisy//src/per/sdmmc.h ****  * 
  21:../../libDaisy//src/per/sdmmc.h ****  *  Only SDMMC1 is supported at this time.
  22:../../libDaisy//src/per/sdmmc.h ****  *
  23:../../libDaisy//src/per/sdmmc.h ****  *  Pins are fixed to the following:
ARM GAS  /var/folders/z5/_7t90xy14zq1swjhncg0p5z00000gn/T//ccqpyGtJ.s 			page 4


  24:../../libDaisy//src/per/sdmmc.h ****  *  PC12 - SDMMC1 CK
  25:../../libDaisy//src/per/sdmmc.h ****  *  PD2  - SDMMC1 CMD
  26:../../libDaisy//src/per/sdmmc.h ****  *  PC8  - SDMMC1 D0
  27:../../libDaisy//src/per/sdmmc.h ****  *  PC9  - SDMMC1 D1 (optional)
  28:../../libDaisy//src/per/sdmmc.h ****  *  PC10 - SDMMC1 D2 (optional)
  29:../../libDaisy//src/per/sdmmc.h ****  *  PC11 - SDMMC1 D3 (optional)
  30:../../libDaisy//src/per/sdmmc.h **** */
  31:../../libDaisy//src/per/sdmmc.h **** class SdmmcHandler
  32:../../libDaisy//src/per/sdmmc.h **** {
  33:../../libDaisy//src/per/sdmmc.h ****   public:
  34:../../libDaisy//src/per/sdmmc.h ****     /** Return values for the SdmmcHandler class */
  35:../../libDaisy//src/per/sdmmc.h ****     enum class Result
  36:../../libDaisy//src/per/sdmmc.h ****     {
  37:../../libDaisy//src/per/sdmmc.h ****         OK,
  38:../../libDaisy//src/per/sdmmc.h ****         ERROR,
  39:../../libDaisy//src/per/sdmmc.h ****     };
  40:../../libDaisy//src/per/sdmmc.h **** 
  41:../../libDaisy//src/per/sdmmc.h ****     /** Sets whether 4-bit mode or 1-bit mode is used for the SDMMC */
  42:../../libDaisy//src/per/sdmmc.h ****     enum class BusWidth
  43:../../libDaisy//src/per/sdmmc.h ****     {
  44:../../libDaisy//src/per/sdmmc.h ****         BITS_1, /**< Only 1 bit of data per clock is transferred */
  45:../../libDaisy//src/per/sdmmc.h ****         BITS_4, /**< 4-bits of parallel data for each clock pulse */
  46:../../libDaisy//src/per/sdmmc.h ****     };
  47:../../libDaisy//src/per/sdmmc.h **** 
  48:../../libDaisy//src/per/sdmmc.h ****     /** 
  49:../../libDaisy//src/per/sdmmc.h ****     Sets the desired clock speed of the SD card bus. \n 
  50:../../libDaisy//src/per/sdmmc.h ****     Initialization is always done at or below 400kHz, and then the user speed is set.
  51:../../libDaisy//src/per/sdmmc.h ****     */
  52:../../libDaisy//src/per/sdmmc.h ****     enum class Speed
  53:../../libDaisy//src/per/sdmmc.h ****     {
  54:../../libDaisy//src/per/sdmmc.h ****         SLOW, /**< 400kHz, initialization  performed at this rate, before moving to user value */
  55:../../libDaisy//src/per/sdmmc.h ****         MEDIUM_SLOW, /**< 12.5MHz - half of standard rate */
  56:../../libDaisy//src/per/sdmmc.h ****         STANDARD,    /**< 25MHz - DS (Default Speed for SDMMC) */
  57:../../libDaisy//src/per/sdmmc.h ****         FAST,        /**< 50MHz - HS (High Speed signaling) */
  58:../../libDaisy//src/per/sdmmc.h ****         VERY_FAST, /**< 100MHz - SDR50 Overclocked rate for maximum transfer rates */
  59:../../libDaisy//src/per/sdmmc.h ****     };
  60:../../libDaisy//src/per/sdmmc.h **** 
  61:../../libDaisy//src/per/sdmmc.h ****     struct Config
  62:../../libDaisy//src/per/sdmmc.h ****     {
  63:../../libDaisy//src/per/sdmmc.h ****         Speed    speed;
  64:../../libDaisy//src/per/sdmmc.h ****         BusWidth width;
  65:../../libDaisy//src/per/sdmmc.h ****         bool
  66:../../libDaisy//src/per/sdmmc.h ****             clock_powersave; /**< When true, the clock will stop between transfers to save power. *
  67:../../libDaisy//src/per/sdmmc.h **** 
  68:../../libDaisy//src/per/sdmmc.h ****         /** Configures settings to their default settings */
  69:../../libDaisy//src/per/sdmmc.h ****         void Defaults()
  70:../../libDaisy//src/per/sdmmc.h ****         {
  71:../../libDaisy//src/per/sdmmc.h ****             speed           = Speed::FAST;
  72:../../libDaisy//src/per/sdmmc.h ****             width           = BusWidth::BITS_4;
  73:../../libDaisy//src/per/sdmmc.h ****             clock_powersave = false;
  74:../../libDaisy//src/per/sdmmc.h ****         }
  75:../../libDaisy//src/per/sdmmc.h ****     };
  76:../../libDaisy//src/per/sdmmc.h **** 
  77:../../libDaisy//src/per/sdmmc.h ****     SdmmcHandler() {}
  78:../../libDaisy//src/per/sdmmc.h ****     ~SdmmcHandler() {}
  52              		.loc 2 78 5 is_stmt 1 view -0
  53              		.cfi_startproc
ARM GAS  /var/folders/z5/_7t90xy14zq1swjhncg0p5z00000gn/T//ccqpyGtJ.s 			page 5


  54              		@ args = 0, pretend = 0, frame = 0
  55              		@ frame_needed = 0, uses_anonymous_args = 0
  56              		@ link register save eliminated.
  57              		.loc 2 78 22 is_stmt 0 view .LVU3
  58 0000 7047     		bx	lr
  59              		.cfi_endproc
  60              	.LFE1689:
  62              		.weak	_ZN5daisy12SdmmcHandlerD1Ev
  63              		.thumb_set _ZN5daisy12SdmmcHandlerD1Ev,_ZN5daisy12SdmmcHandlerD2Ev
  64              		.section	.text._ZN5daisy9DaisySeedD2Ev,"axG",%progbits,_ZN5daisy9DaisySeedD5Ev,comdat
  65              		.align	1
  66              		.weak	_ZN5daisy9DaisySeedD2Ev
  67              		.syntax unified
  68              		.thumb
  69              		.thumb_func
  71              	_ZN5daisy9DaisySeedD2Ev:
  72              	.LVL2:
  73              	.LFB2535:
  74              		.file 3 "../../libDaisy//src/daisy_seed.h"
   1:../../libDaisy//src/daisy_seed.h **** #pragma once
   2:../../libDaisy//src/daisy_seed.h **** #ifndef DSY_SEED_H
   3:../../libDaisy//src/daisy_seed.h **** #define DSY_SEED_H
   4:../../libDaisy//src/daisy_seed.h **** 
   5:../../libDaisy//src/daisy_seed.h **** #include "daisy.h"
   6:../../libDaisy//src/daisy_seed.h **** 
   7:../../libDaisy//src/daisy_seed.h **** //Uncomment this out if you're still using the rev2 hardware
   8:../../libDaisy//src/daisy_seed.h **** //#define SEED_REV2
   9:../../libDaisy//src/daisy_seed.h **** 
  10:../../libDaisy//src/daisy_seed.h **** namespace daisy
  11:../../libDaisy//src/daisy_seed.h **** {
  12:../../libDaisy//src/daisy_seed.h **** /**
  13:../../libDaisy//src/daisy_seed.h ****    @brief This is the higher-level interface for the Daisy board. \n 
  14:../../libDaisy//src/daisy_seed.h ****     All basic peripheral configuration/initialization is setup here. \n
  15:../../libDaisy//src/daisy_seed.h **** 
  16:../../libDaisy//src/daisy_seed.h ****    @ingroup boards
  17:../../libDaisy//src/daisy_seed.h **** */
  18:../../libDaisy//src/daisy_seed.h **** class DaisySeed
  19:../../libDaisy//src/daisy_seed.h **** {
  20:../../libDaisy//src/daisy_seed.h ****   public:
  21:../../libDaisy//src/daisy_seed.h ****     DaisySeed() {}
  22:../../libDaisy//src/daisy_seed.h ****     ~DaisySeed() {}
  75              		.loc 3 22 5 is_stmt 1 view -0
  76              		.cfi_startproc
  77              		@ args = 0, pretend = 0, frame = 0
  78              		@ frame_needed = 0, uses_anonymous_args = 0
  79              		@ link register save eliminated.
  80              	.LBB544:
  81              	.LBI544:
  82              		.file 4 "../../libDaisy//src/sys/system.h"
   1:../../libDaisy//src/sys/system.h **** #ifndef DSY_SYSTEM_H
   2:../../libDaisy//src/sys/system.h **** #define DSY_SYSTEM_H
   3:../../libDaisy//src/sys/system.h **** 
   4:../../libDaisy//src/sys/system.h **** #ifndef UNIT_TEST // for unit tests, a dummy implementation is provided below
   5:../../libDaisy//src/sys/system.h **** 
   6:../../libDaisy//src/sys/system.h **** #include <cstdint>
   7:../../libDaisy//src/sys/system.h **** #include "per/tim.h"
   8:../../libDaisy//src/sys/system.h **** 
ARM GAS  /var/folders/z5/_7t90xy14zq1swjhncg0p5z00000gn/T//ccqpyGtJ.s 			page 6


   9:../../libDaisy//src/sys/system.h **** namespace daisy
  10:../../libDaisy//src/sys/system.h **** {
  11:../../libDaisy//src/sys/system.h **** /** A handle for interacting with the Core System. 
  12:../../libDaisy//src/sys/system.h ****  ** This includes the Clock tree, MPU, global DMA initialization,
  13:../../libDaisy//src/sys/system.h ****  ** cache handling, and any other necessary global initiailzation
  14:../../libDaisy//src/sys/system.h ****  **
  15:../../libDaisy//src/sys/system.h ****  ** @author shensley
  16:../../libDaisy//src/sys/system.h ****  ** @ingroup system
  17:../../libDaisy//src/sys/system.h ****  */
  18:../../libDaisy//src/sys/system.h **** class System
  19:../../libDaisy//src/sys/system.h **** {
  20:../../libDaisy//src/sys/system.h ****   public:
  21:../../libDaisy//src/sys/system.h ****     /** Contains settings for initializing the System */
  22:../../libDaisy//src/sys/system.h ****     struct Config
  23:../../libDaisy//src/sys/system.h ****     {
  24:../../libDaisy//src/sys/system.h ****         /** Specifies the system clock frequency that feeds APB/AHB clocks, etc. */
  25:../../libDaisy//src/sys/system.h ****         enum class SysClkFreq
  26:../../libDaisy//src/sys/system.h ****         {
  27:../../libDaisy//src/sys/system.h ****             FREQ_400MHZ,
  28:../../libDaisy//src/sys/system.h ****             FREQ_480MHZ,
  29:../../libDaisy//src/sys/system.h ****         };
  30:../../libDaisy//src/sys/system.h **** 
  31:../../libDaisy//src/sys/system.h ****         /** Method to call on the struct to set to defaults
  32:../../libDaisy//src/sys/system.h ****          ** CPU Freq set to 400MHz
  33:../../libDaisy//src/sys/system.h ****          ** Cache Enabled 
  34:../../libDaisy//src/sys/system.h ****          ** */
  35:../../libDaisy//src/sys/system.h ****         void Defaults()
  36:../../libDaisy//src/sys/system.h ****         {
  37:../../libDaisy//src/sys/system.h ****             cpu_freq    = SysClkFreq::FREQ_400MHZ;
  38:../../libDaisy//src/sys/system.h ****             use_dcache  = true;
  39:../../libDaisy//src/sys/system.h ****             use_icache  = true;
  40:../../libDaisy//src/sys/system.h ****             skip_clocks = false;
  41:../../libDaisy//src/sys/system.h ****         }
  42:../../libDaisy//src/sys/system.h **** 
  43:../../libDaisy//src/sys/system.h ****         /** Method to call on the struct to set to boost mode:
  44:../../libDaisy//src/sys/system.h ****          ** CPU Freq set to 480MHz
  45:../../libDaisy//src/sys/system.h ****          ** Cache Enabled 
  46:../../libDaisy//src/sys/system.h ****          ** */
  47:../../libDaisy//src/sys/system.h ****         void Boost()
  48:../../libDaisy//src/sys/system.h ****         {
  49:../../libDaisy//src/sys/system.h ****             cpu_freq    = SysClkFreq::FREQ_480MHZ;
  50:../../libDaisy//src/sys/system.h ****             use_dcache  = true;
  51:../../libDaisy//src/sys/system.h ****             use_icache  = true;
  52:../../libDaisy//src/sys/system.h ****             skip_clocks = false;
  53:../../libDaisy//src/sys/system.h ****         }
  54:../../libDaisy//src/sys/system.h **** 
  55:../../libDaisy//src/sys/system.h ****         SysClkFreq cpu_freq;
  56:../../libDaisy//src/sys/system.h ****         bool       use_dcache;
  57:../../libDaisy//src/sys/system.h ****         bool       use_icache;
  58:../../libDaisy//src/sys/system.h ****         bool       skip_clocks;
  59:../../libDaisy//src/sys/system.h ****     };
  60:../../libDaisy//src/sys/system.h **** 
  61:../../libDaisy//src/sys/system.h ****     /** Describes the different regions of memory available to the Daisy
  62:../../libDaisy//src/sys/system.h ****      * 
  63:../../libDaisy//src/sys/system.h ****      */
  64:../../libDaisy//src/sys/system.h ****     enum MemoryRegion
  65:../../libDaisy//src/sys/system.h ****     {
ARM GAS  /var/folders/z5/_7t90xy14zq1swjhncg0p5z00000gn/T//ccqpyGtJ.s 			page 7


  66:../../libDaisy//src/sys/system.h ****         INTERNAL_FLASH = 0,
  67:../../libDaisy//src/sys/system.h ****         ITCMRAM,
  68:../../libDaisy//src/sys/system.h ****         DTCMRAM,
  69:../../libDaisy//src/sys/system.h ****         SRAM_D1,
  70:../../libDaisy//src/sys/system.h ****         SRAM_D2,
  71:../../libDaisy//src/sys/system.h ****         SRAM_D3,
  72:../../libDaisy//src/sys/system.h ****         SDRAM,
  73:../../libDaisy//src/sys/system.h ****         QSPI,
  74:../../libDaisy//src/sys/system.h ****         INVALID_ADDRESS,
  75:../../libDaisy//src/sys/system.h ****     };
  76:../../libDaisy//src/sys/system.h **** 
  77:../../libDaisy//src/sys/system.h ****     System() {}
  78:../../libDaisy//src/sys/system.h ****     ~System() {}
  83              		.loc 4 78 5 view .LVU5
  84              		.loc 4 78 5 is_stmt 0 view .LVU6
  85              	.LBE544:
  86              	.LBB545:
  87              	.LBI545:
  88              		.file 5 "../../libDaisy//src/hid/usb.h"
   1:../../libDaisy//src/hid/usb.h **** #pragma once
   2:../../libDaisy//src/hid/usb.h **** #ifndef DSY_HID_USB_H
   3:../../libDaisy//src/hid/usb.h **** #define DSY_HID_USB_H
   4:../../libDaisy//src/hid/usb.h **** #include <stdint.h>
   5:../../libDaisy//src/hid/usb.h **** #include <stdlib.h>
   6:../../libDaisy//src/hid/usb.h **** 
   7:../../libDaisy//src/hid/usb.h **** namespace daisy
   8:../../libDaisy//src/hid/usb.h **** /** @addtogroup human_interface
   9:../../libDaisy//src/hid/usb.h ****     @{
  10:../../libDaisy//src/hid/usb.h **** */
  11:../../libDaisy//src/hid/usb.h **** 
  12:../../libDaisy//src/hid/usb.h **** {
  13:../../libDaisy//src/hid/usb.h **** /** 
  14:../../libDaisy//src/hid/usb.h ****     @brief Interface for initializing and using the USB Peripherals on the daisy
  15:../../libDaisy//src/hid/usb.h ****     @author Stephen Hensley
  16:../../libDaisy//src/hid/usb.h ****     @date December 2019
  17:../../libDaisy//src/hid/usb.h **** */
  18:../../libDaisy//src/hid/usb.h **** class UsbHandle
  19:../../libDaisy//src/hid/usb.h **** {
  20:../../libDaisy//src/hid/usb.h ****   public:
  21:../../libDaisy//src/hid/usb.h ****     /** Return values for USBHandle Functions */
  22:../../libDaisy//src/hid/usb.h ****     enum class Result
  23:../../libDaisy//src/hid/usb.h ****     {
  24:../../libDaisy//src/hid/usb.h ****         OK,
  25:../../libDaisy//src/hid/usb.h ****         ERR,
  26:../../libDaisy//src/hid/usb.h ****     };
  27:../../libDaisy//src/hid/usb.h **** 
  28:../../libDaisy//src/hid/usb.h ****     /** Specified which of the two USB Peripherals to initialize. */
  29:../../libDaisy//src/hid/usb.h ****     enum UsbPeriph
  30:../../libDaisy//src/hid/usb.h ****     {
  31:../../libDaisy//src/hid/usb.h ****         FS_INTERNAL, /**< Internal pin */
  32:../../libDaisy//src/hid/usb.h ****         FS_EXTERNAL, /**< FS External D+ pin is Pin 38 (GPIO32). FS External D- pin is Pin 37 (GPIO
  33:../../libDaisy//src/hid/usb.h ****         FS_BOTH,     /**< Both */
  34:../../libDaisy//src/hid/usb.h ****     };
  35:../../libDaisy//src/hid/usb.h **** 
  36:../../libDaisy//src/hid/usb.h **** 
  37:../../libDaisy//src/hid/usb.h ****     /** Function called upon reception of a buffer */
  38:../../libDaisy//src/hid/usb.h ****     typedef void (*ReceiveCallback)(uint8_t* buff, uint32_t* len);
ARM GAS  /var/folders/z5/_7t90xy14zq1swjhncg0p5z00000gn/T//ccqpyGtJ.s 			page 8


  39:../../libDaisy//src/hid/usb.h **** 
  40:../../libDaisy//src/hid/usb.h ****     UsbHandle() {}
  41:../../libDaisy//src/hid/usb.h **** 
  42:../../libDaisy//src/hid/usb.h ****     ~UsbHandle() {}
  89              		.loc 5 42 5 is_stmt 1 view .LVU7
  90              		.loc 5 42 5 is_stmt 0 view .LVU8
  91              	.LBE545:
  92              	.LBB546:
  93              	.LBI546:
  94              		.file 6 "../../libDaisy//src/per/adc.h"
   1:../../libDaisy//src/per/adc.h **** #pragma once
   2:../../libDaisy//src/per/adc.h **** #ifndef DSY_ADC_H
   3:../../libDaisy//src/per/adc.h **** #define DSY_ADC_H /**< Macro */
   4:../../libDaisy//src/per/adc.h **** #include <stdint.h>
   5:../../libDaisy//src/per/adc.h **** #include <stdlib.h>
   6:../../libDaisy//src/per/adc.h **** #include "daisy_core.h"
   7:../../libDaisy//src/per/adc.h **** #include "per/gpio.h"
   8:../../libDaisy//src/per/adc.h **** 
   9:../../libDaisy//src/per/adc.h **** #define DSY_ADC_MAX_CHANNELS 16 /**< Maximum number of ADC channels */
  10:../../libDaisy//src/per/adc.h **** 
  11:../../libDaisy//src/per/adc.h **** namespace daisy
  12:../../libDaisy//src/per/adc.h **** {
  13:../../libDaisy//src/per/adc.h **** /** @addtogroup per_analog
  14:../../libDaisy//src/per/adc.h ****     @{
  15:../../libDaisy//src/per/adc.h **** */
  16:../../libDaisy//src/per/adc.h **** 
  17:../../libDaisy//src/per/adc.h **** /* While there may not be many configuration options here,
  18:../../libDaisy//src/per/adc.h **** using a struct like this allows us to add more configuration
  19:../../libDaisy//src/per/adc.h **** later without breaking existing functionality.
  20:../../libDaisy//src/per/adc.h **** */
  21:../../libDaisy//src/per/adc.h **** 
  22:../../libDaisy//src/per/adc.h **** /** @brief   Configuration Structure for an ADC Channel 
  23:../../libDaisy//src/per/adc.h ****  *  @details This can be used to configure a a single input, 
  24:../../libDaisy//src/per/adc.h ****  *           or a multiplexed input, allowing up to 8 inputs on 
  25:../../libDaisy//src/per/adc.h ****  *           one channel.
  26:../../libDaisy//src/per/adc.h ****  *  @note    Sharing data lines to multiple muxes _is_ possible, but
  27:../../libDaisy//src/per/adc.h ****  *           each channel sharing data lines must be set to the maximum
  28:../../libDaisy//src/per/adc.h ****  *           number of channels, even if some multiplexers have fewer
  29:../../libDaisy//src/per/adc.h ****  *           inputs connected.
  30:../../libDaisy//src/per/adc.h **** */
  31:../../libDaisy//src/per/adc.h **** struct AdcChannelConfig
  32:../../libDaisy//src/per/adc.h **** {
  33:../../libDaisy//src/per/adc.h ****     /** Which pin to use for multiplexing */
  34:../../libDaisy//src/per/adc.h ****     enum MuxPin
  35:../../libDaisy//src/per/adc.h ****     {
  36:../../libDaisy//src/per/adc.h ****         MUX_SEL_0,    /**< & */
  37:../../libDaisy//src/per/adc.h ****         MUX_SEL_1,    /**< & */
  38:../../libDaisy//src/per/adc.h ****         MUX_SEL_2,    /**< & */
  39:../../libDaisy//src/per/adc.h ****         MUX_SEL_LAST, /**< & */
  40:../../libDaisy//src/per/adc.h ****     };
  41:../../libDaisy//src/per/adc.h **** 
  42:../../libDaisy//src/per/adc.h ****     /** Initializes a single ADC pin as an ADC. 
  43:../../libDaisy//src/per/adc.h ****     \param pin Pin to init.
  44:../../libDaisy//src/per/adc.h ****      */
  45:../../libDaisy//src/per/adc.h ****     void InitSingle(dsy_gpio_pin pin);
  46:../../libDaisy//src/per/adc.h **** 
  47:../../libDaisy//src/per/adc.h ****     /** 
ARM GAS  /var/folders/z5/_7t90xy14zq1swjhncg0p5z00000gn/T//ccqpyGtJ.s 			page 9


  48:../../libDaisy//src/per/adc.h ****     Initializes a single ADC pin as a Multiplexed ADC.
  49:../../libDaisy//src/per/adc.h ****     Requires a CD405X Multiplexer connected to the pin.
  50:../../libDaisy//src/per/adc.h ****     You only need to supply the mux pins that are required,
  51:../../libDaisy//src/per/adc.h ****     e.g. a 4052 mux would only require mux_0 and mux_1.
  52:../../libDaisy//src/per/adc.h ****     Internal Callbacks handle the pin addressing.
  53:../../libDaisy//src/per/adc.h ****     \param mux_channels must be 1-8
  54:../../libDaisy//src/per/adc.h ****     \param mux_0 First mux pin
  55:../../libDaisy//src/per/adc.h ****     \param mux_1 Second mux pin
  56:../../libDaisy//src/per/adc.h ****     \param mux_2 Third mux pin
  57:../../libDaisy//src/per/adc.h ****     \param adc_pin &
  58:../../libDaisy//src/per/adc.h ****     */
  59:../../libDaisy//src/per/adc.h ****     void InitMux(dsy_gpio_pin adc_pin,
  60:../../libDaisy//src/per/adc.h ****                  size_t       mux_channels,
  61:../../libDaisy//src/per/adc.h ****                  dsy_gpio_pin mux_0,
  62:../../libDaisy//src/per/adc.h ****                  dsy_gpio_pin mux_1 = {DSY_GPIOX, 0},
  63:../../libDaisy//src/per/adc.h ****                  dsy_gpio_pin mux_2 = {DSY_GPIOX, 0});
  64:../../libDaisy//src/per/adc.h **** 
  65:../../libDaisy//src/per/adc.h ****     dsy_gpio pin_;                   /**< & */
  66:../../libDaisy//src/per/adc.h ****     dsy_gpio mux_pin_[MUX_SEL_LAST]; /**< & */
  67:../../libDaisy//src/per/adc.h ****     uint8_t  mux_channels_;          /**< & */
  68:../../libDaisy//src/per/adc.h **** };
  69:../../libDaisy//src/per/adc.h **** 
  70:../../libDaisy//src/per/adc.h **** /**
  71:../../libDaisy//src/per/adc.h ****    @brief Handler for analog to digital conversion
  72:../../libDaisy//src/per/adc.h **** */
  73:../../libDaisy//src/per/adc.h **** class AdcHandle
  74:../../libDaisy//src/per/adc.h **** {
  75:../../libDaisy//src/per/adc.h ****   public:
  76:../../libDaisy//src/per/adc.h ****     /** Supported oversampling amounts */
  77:../../libDaisy//src/per/adc.h ****     enum OverSampling
  78:../../libDaisy//src/per/adc.h ****     {
  79:../../libDaisy//src/per/adc.h ****         OVS_NONE, /**< & */
  80:../../libDaisy//src/per/adc.h ****         OVS_4,    /**< & */
  81:../../libDaisy//src/per/adc.h ****         OVS_8,    /**< & */
  82:../../libDaisy//src/per/adc.h ****         OVS_16,   /**< & */
  83:../../libDaisy//src/per/adc.h ****         OVS_32,   /**< & */
  84:../../libDaisy//src/per/adc.h ****         OVS_64,   /**< & */
  85:../../libDaisy//src/per/adc.h ****         OVS_128,  /**< & */
  86:../../libDaisy//src/per/adc.h ****         OVS_256,  /**< & */
  87:../../libDaisy//src/per/adc.h ****         OVS_512,  /**< & */
  88:../../libDaisy//src/per/adc.h ****         OVS_1024, /**< & */
  89:../../libDaisy//src/per/adc.h ****         OVS_LAST, /**< & */
  90:../../libDaisy//src/per/adc.h ****     };
  91:../../libDaisy//src/per/adc.h **** 
  92:../../libDaisy//src/per/adc.h ****     AdcHandle() {}
  93:../../libDaisy//src/per/adc.h ****     ~AdcHandle() {}
  95              		.loc 6 93 5 is_stmt 1 view .LVU9
  96              		.loc 6 93 5 is_stmt 0 view .LVU10
  97              	.LBE546:
  98              	.LBB547:
  99              	.LBI547:
 100              		.file 7 "../../libDaisy//src/hid/audio.h"
   1:../../libDaisy//src/hid/audio.h **** #ifndef DSY_AUDIO_H
   2:../../libDaisy//src/hid/audio.h **** #define DSY_AUDIO_H /**< & */
   3:../../libDaisy//src/hid/audio.h **** 
   4:../../libDaisy//src/hid/audio.h **** #include "per/sai.h"
   5:../../libDaisy//src/hid/audio.h **** 
ARM GAS  /var/folders/z5/_7t90xy14zq1swjhncg0p5z00000gn/T//ccqpyGtJ.s 			page 10


   6:../../libDaisy//src/hid/audio.h **** namespace daisy
   7:../../libDaisy//src/hid/audio.h **** {
   8:../../libDaisy//src/hid/audio.h **** /** @brief Audio Engine Handle
   9:../../libDaisy//src/hid/audio.h ****  *  @ingroup audio 
  10:../../libDaisy//src/hid/audio.h ****  *  @details This class allows for higher level access to an audio engine.
  11:../../libDaisy//src/hid/audio.h ****  *           If you're using a SOM like the DaisySeed or DaisyPatchSM (or any 
  12:../../libDaisy//src/hid/audio.h ****  *            board that includes one of those objects) then the intialization
  13:../../libDaisy//src/hid/audio.h ****  *            is already taken  care of.
  14:../../libDaisy//src/hid/audio.h ****  *           If you're setting up your own custom hardware, or need to make changes
  15:../../libDaisy//src/hid/audio.h ****  *           you will have to take the following steps:
  16:../../libDaisy//src/hid/audio.h ****  *             1. Create and Initialize an SaiHandle or two depending on your requirements
  17:../../libDaisy//src/hid/audio.h ****  *             2. Initialize the Audio Handle with the desired settings and the Initialized SaiHand
  18:../../libDaisy//src/hid/audio.h ****  *             3. If the connected codec requires special configuration or initialization, do so
  19:../../libDaisy//src/hid/audio.h ****  *             4. Write a callback method using either the AudioCallback or the InterleavingAudioCa
  20:../../libDaisy//src/hid/audio.h ****  *             5. Start the Audio using one of the StartAudio function
  21:../../libDaisy//src/hid/audio.h ****  */
  22:../../libDaisy//src/hid/audio.h **** class AudioHandle
  23:../../libDaisy//src/hid/audio.h **** {
  24:../../libDaisy//src/hid/audio.h ****   public:
  25:../../libDaisy//src/hid/audio.h ****     /** Manually configurable details about the Audio Engine */
  26:../../libDaisy//src/hid/audio.h ****     /** TODO: Figure out how to get samplerate in here. */
  27:../../libDaisy//src/hid/audio.h ****     struct Config
  28:../../libDaisy//src/hid/audio.h ****     {
  29:../../libDaisy//src/hid/audio.h ****         /** number of samples to process per callback */
  30:../../libDaisy//src/hid/audio.h ****         size_t blocksize;
  31:../../libDaisy//src/hid/audio.h **** 
  32:../../libDaisy//src/hid/audio.h ****         /**< Sample rate of audio */
  33:../../libDaisy//src/hid/audio.h ****         SaiHandle::Config::SampleRate samplerate;
  34:../../libDaisy//src/hid/audio.h **** 
  35:../../libDaisy//src/hid/audio.h ****         /** factor for adjustment before and after callback for hardware that may have extra headro
  36:../../libDaisy//src/hid/audio.h ****         float postgain;
  37:../../libDaisy//src/hid/audio.h **** 
  38:../../libDaisy//src/hid/audio.h ****         /** factor for additional one-sided compensation to audio path for hardware that may
  39:../../libDaisy//src/hid/audio.h ****          *  have unequal input/output ranges
  40:../../libDaisy//src/hid/audio.h ****          */
  41:../../libDaisy//src/hid/audio.h ****         float output_compensation;
  42:../../libDaisy//src/hid/audio.h **** 
  43:../../libDaisy//src/hid/audio.h ****         /** Sets default values for config struct */
  44:../../libDaisy//src/hid/audio.h ****         Config()
  45:../../libDaisy//src/hid/audio.h ****         : blocksize(48),
  46:../../libDaisy//src/hid/audio.h ****           samplerate(SaiHandle::Config::SampleRate::SAI_48KHZ),
  47:../../libDaisy//src/hid/audio.h ****           postgain(1.f),
  48:../../libDaisy//src/hid/audio.h ****           output_compensation(1.f)
  49:../../libDaisy//src/hid/audio.h ****         {
  50:../../libDaisy//src/hid/audio.h ****         }
  51:../../libDaisy//src/hid/audio.h ****     };
  52:../../libDaisy//src/hid/audio.h **** 
  53:../../libDaisy//src/hid/audio.h ****     enum class Result
  54:../../libDaisy//src/hid/audio.h ****     {
  55:../../libDaisy//src/hid/audio.h ****         OK,
  56:../../libDaisy//src/hid/audio.h ****         ERR,
  57:../../libDaisy//src/hid/audio.h ****     };
  58:../../libDaisy//src/hid/audio.h **** 
  59:../../libDaisy//src/hid/audio.h ****     /** Non-Interleaving input buffer
  60:../../libDaisy//src/hid/audio.h ****      * Buffer arranged by float[chn][sample] 
  61:../../libDaisy//src/hid/audio.h ****      * const so that the user can't modify the input
  62:../../libDaisy//src/hid/audio.h ****      */
ARM GAS  /var/folders/z5/_7t90xy14zq1swjhncg0p5z00000gn/T//ccqpyGtJ.s 			page 11


  63:../../libDaisy//src/hid/audio.h ****     typedef const float* const* InputBuffer;
  64:../../libDaisy//src/hid/audio.h **** 
  65:../../libDaisy//src/hid/audio.h ****     /** Non-Interleaving output buffer
  66:../../libDaisy//src/hid/audio.h ****      * Arranged by float[chn][sample] 
  67:../../libDaisy//src/hid/audio.h ****      */
  68:../../libDaisy//src/hid/audio.h ****     typedef float** OutputBuffer;
  69:../../libDaisy//src/hid/audio.h **** 
  70:../../libDaisy//src/hid/audio.h ****     /** Type for a Non-Interleaving audio callback 
  71:../../libDaisy//src/hid/audio.h ****      * Non-Interleaving audio callbacks in daisy will be of this type
  72:../../libDaisy//src/hid/audio.h ****      */
  73:../../libDaisy//src/hid/audio.h ****     typedef void (*AudioCallback)(InputBuffer  in,
  74:../../libDaisy//src/hid/audio.h ****                                   OutputBuffer out,
  75:../../libDaisy//src/hid/audio.h ****                                   size_t       size);
  76:../../libDaisy//src/hid/audio.h **** 
  77:../../libDaisy//src/hid/audio.h ****     /** Interleaving Input buffer
  78:../../libDaisy//src/hid/audio.h ****      ** audio is prepared as { L0, R0, L1, R1, . . . LN, RN }]
  79:../../libDaisy//src/hid/audio.h ****      ** this is const, as the user shouldn't modify it
  80:../../libDaisy//src/hid/audio.h ****     */
  81:../../libDaisy//src/hid/audio.h ****     typedef const float* InterleavingInputBuffer;
  82:../../libDaisy//src/hid/audio.h **** 
  83:../../libDaisy//src/hid/audio.h ****     /** Interleaving Output buffer 
  84:../../libDaisy//src/hid/audio.h ****      ** audio is prepared as { L0, R0, L1, R1, . . . LN, RN }
  85:../../libDaisy//src/hid/audio.h ****     */
  86:../../libDaisy//src/hid/audio.h ****     typedef float* InterleavingOutputBuffer;
  87:../../libDaisy//src/hid/audio.h **** 
  88:../../libDaisy//src/hid/audio.h ****     /** Interleaving Audio Callback 
  89:../../libDaisy//src/hid/audio.h ****      * Interleaving audio callbacks in daisy must be of this type
  90:../../libDaisy//src/hid/audio.h ****      */
  91:../../libDaisy//src/hid/audio.h ****     typedef void (*InterleavingAudioCallback)(InterleavingInputBuffer  in,
  92:../../libDaisy//src/hid/audio.h ****                                               InterleavingOutputBuffer out,
  93:../../libDaisy//src/hid/audio.h ****                                               size_t                   size);
  94:../../libDaisy//src/hid/audio.h **** 
  95:../../libDaisy//src/hid/audio.h ****     AudioHandle() : pimpl_(nullptr) {}
  96:../../libDaisy//src/hid/audio.h ****     ~AudioHandle() {}
 101              		.loc 7 96 5 is_stmt 1 view .LVU11
 102              		.loc 7 96 5 is_stmt 0 view .LVU12
 103              	.LBE547:
 104              		.loc 3 22 19 view .LVU13
 105 0000 7047     		bx	lr
 106              		.cfi_endproc
 107              	.LFE2535:
 109              		.weak	_ZN5daisy9DaisySeedD1Ev
 110              		.thumb_set _ZN5daisy9DaisySeedD1Ev,_ZN5daisy9DaisySeedD2Ev
 111              		.section	.text._ZN7daisysp5MetroD2Ev,"axG",%progbits,_ZN7daisysp5MetroD5Ev,comdat
 112              		.align	1
 113              		.weak	_ZN7daisysp5MetroD2Ev
 114              		.syntax unified
 115              		.thumb
 116              		.thumb_func
 118              	_ZN7daisysp5MetroD2Ev:
 119              	.LVL3:
 120              	.LFB4766:
 121              		.file 8 "../../DaisySP//Source/Utility/metro.h"
   1:../../DaisySP//Source/Utility/metro.h **** #pragma once
   2:../../DaisySP//Source/Utility/metro.h **** #ifndef DSY_METRO_H
   3:../../DaisySP//Source/Utility/metro.h **** #define DSY_METRO_H
   4:../../DaisySP//Source/Utility/metro.h **** #include <stdint.h>
ARM GAS  /var/folders/z5/_7t90xy14zq1swjhncg0p5z00000gn/T//ccqpyGtJ.s 			page 12


   5:../../DaisySP//Source/Utility/metro.h **** #ifdef __cplusplus
   6:../../DaisySP//Source/Utility/metro.h **** 
   7:../../DaisySP//Source/Utility/metro.h **** namespace daisysp
   8:../../DaisySP//Source/Utility/metro.h **** {
   9:../../DaisySP//Source/Utility/metro.h **** /** Creates a clock signal at a specific frequency.
  10:../../DaisySP//Source/Utility/metro.h **** */
  11:../../DaisySP//Source/Utility/metro.h **** class Metro
  12:../../DaisySP//Source/Utility/metro.h **** {
  13:../../DaisySP//Source/Utility/metro.h ****   public:
  14:../../DaisySP//Source/Utility/metro.h ****     Metro() {}
  15:../../DaisySP//Source/Utility/metro.h ****     ~Metro() {}
 122              		.loc 8 15 5 is_stmt 1 view -0
 123              		.cfi_startproc
 124              		@ args = 0, pretend = 0, frame = 0
 125              		@ frame_needed = 0, uses_anonymous_args = 0
 126              		@ link register save eliminated.
 127              		.loc 8 15 15 is_stmt 0 view .LVU15
 128 0000 7047     		bx	lr
 129              		.cfi_endproc
 130              	.LFE4766:
 132              		.weak	_ZN7daisysp5MetroD1Ev
 133              		.thumb_set _ZN7daisysp5MetroD1Ev,_ZN7daisysp5MetroD2Ev
 134              		.section	.text._ZN8StepLEDsD2Ev,"axG",%progbits,_ZN8StepLEDsD5Ev,comdat
 135              		.align	1
 136              		.weak	_ZN8StepLEDsD2Ev
 137              		.syntax unified
 138              		.thumb
 139              		.thumb_func
 141              	_ZN8StepLEDsD2Ev:
 142              	.LVL4:
 143              	.LFB4829:
 144              		.file 9 "StepLEDs.h"
   1:StepLEDs.h    **** #pragma once
   2:StepLEDs.h    **** #ifndef DSY_STEP_LEDS_H
   3:StepLEDs.h    **** #define DSY_STEP_LEDS_H
   4:StepLEDs.h    **** #include "daisy.h"
   5:StepLEDs.h    **** #include "per/gpio.h"
   6:StepLEDs.h    **** #include "sys/system.h"
   7:StepLEDs.h    **** #include "per/spi.h"
   8:StepLEDs.h    **** 
   9:StepLEDs.h    **** /** 
  10:StepLEDs.h    ****     @author Hayden Barry
  11:StepLEDs.h    ****     @date Febuary 2024
  12:StepLEDs.h    **** */
  13:StepLEDs.h    **** using namespace daisy;
  14:StepLEDs.h    **** class StepLEDs
  15:StepLEDs.h    **** {
  16:StepLEDs.h    ****   public:
  17:StepLEDs.h    **** 
  18:StepLEDs.h    ****     StepLEDs() {}
  19:StepLEDs.h    ****     ~StepLEDs() {}
 145              		.loc 9 19 5 is_stmt 1 view -0
 146              		.cfi_startproc
 147              		@ args = 0, pretend = 0, frame = 0
 148              		@ frame_needed = 0, uses_anonymous_args = 0
 149              		@ link register save eliminated.
 150              		.loc 9 19 18 is_stmt 0 view .LVU17
ARM GAS  /var/folders/z5/_7t90xy14zq1swjhncg0p5z00000gn/T//ccqpyGtJ.s 			page 13


 151 0000 7047     		bx	lr
 152              		.cfi_endproc
 153              	.LFE4829:
 155              		.weak	_ZN8StepLEDsD1Ev
 156              		.thumb_set _ZN8StepLEDsD1Ev,_ZN8StepLEDsD2Ev
 157              		.section	.text._ZN9SequencerILj16ELj16ELj16EED2Ev,"axG",%progbits,_ZN9SequencerILj16ELj16ELj16EED5
 158              		.align	1
 159              		.weak	_ZN9SequencerILj16ELj16ELj16EED2Ev
 160              		.syntax unified
 161              		.thumb
 162              		.thumb_func
 164              	_ZN9SequencerILj16ELj16ELj16EED2Ev:
 165              	.LVL5:
 166              	.LFB5565:
 167              		.file 10 "Sequencer.h"
   1:Sequencer.h   **** #pragma once
   2:Sequencer.h   **** #ifndef DSY_SEQUENCE_H
   3:Sequencer.h   **** #define DSY_SEQUENCE_H
   4:Sequencer.h   **** #include "daisy.h"
   5:Sequencer.h   **** #include "daisysp.h"
   6:Sequencer.h   **** 
   7:Sequencer.h   **** /** 
   8:Sequencer.h   ****     @author Hayden Barry
   9:Sequencer.h   ****     @date Febuary 2024
  10:Sequencer.h   **** */
  11:Sequencer.h   **** 
  12:Sequencer.h   **** struct Step {
  13:Sequencer.h   **** 
  14:Sequencer.h   **** 	uint8_t velocity = 100;
  15:Sequencer.h   **** 
  16:Sequencer.h   **** 	// velocity ranges from 0-127
  17:Sequencer.h   **** 	void SetVelocity(uint8_t velocity) {
  18:Sequencer.h   **** 		this->velocity = (this->velocity & 128) | (velocity & 127); // velocity only 7 bit value
  19:Sequencer.h   **** 	}
  20:Sequencer.h   **** 
  21:Sequencer.h   **** 	void IncrementVelocity() {if (GetVelocity() < 127) SetVelocity(GetVelocity() + 1);}
  22:Sequencer.h   **** 	void DecrementVelocity() {if (GetVelocity() > 0  ) SetVelocity(GetVelocity() - 1);}
  23:Sequencer.h   **** 
  24:Sequencer.h   **** 	// velocity will be saved if set not Active
  25:Sequencer.h   **** 	void SetActive(bool active) {
  26:Sequencer.h   **** 		if (active) velocity |= 128;
  27:Sequencer.h   **** 		else velocity &= 127;
  28:Sequencer.h   **** 	}
  29:Sequencer.h   **** 	bool Active() {return velocity&128;}
  30:Sequencer.h   **** 	uint8_t GetVelocity() {return velocity & 127;}
  31:Sequencer.h   **** 	float GetVelocityFloat() {return (float)GetVelocity() / 127.f;}
  32:Sequencer.h   **** 	void ToggleActive() {SetActive(!Active());}
  33:Sequencer.h   **** };
  34:Sequencer.h   **** 
  35:Sequencer.h   **** template<size_t voices, size_t steps>
  36:Sequencer.h   **** class Sequence {
  37:Sequencer.h   **** private:
  38:Sequencer.h   **** 	Step stepsArray[voices][steps];
  39:Sequencer.h   **** 	size_t currentStep = 0;
  40:Sequencer.h   **** 	bool active = false;
  41:Sequencer.h   **** 	bool sequenceEnd;
  42:Sequencer.h   **** public: 
ARM GAS  /var/folders/z5/_7t90xy14zq1swjhncg0p5z00000gn/T//ccqpyGtJ.s 			page 14


  43:Sequencer.h   **** 
  44:Sequencer.h   **** 	void Advance() {	
  45:Sequencer.h   **** 		if (++currentStep >= steps) {
  46:Sequencer.h   **** 			sequenceEnd = true;
  47:Sequencer.h   **** 			currentStep = 0;
  48:Sequencer.h   **** 		}
  49:Sequencer.h   **** 	}
  50:Sequencer.h   **** 
  51:Sequencer.h   **** 	bool SequenceEnded() {
  52:Sequencer.h   **** 		bool temp = sequenceEnd;
  53:Sequencer.h   **** 		sequenceEnd = false;
  54:Sequencer.h   **** 		return temp;
  55:Sequencer.h   **** 	}
  56:Sequencer.h   **** 
  57:Sequencer.h   **** 	Step GetStep(size_t voiceID) {
  58:Sequencer.h   **** 		return stepsArray[voiceID][currentStep];
  59:Sequencer.h   **** 	}
  60:Sequencer.h   **** 
  61:Sequencer.h   **** 	int GetCurrentStepIndex() {return currentStep;}
  62:Sequencer.h   **** 
  63:Sequencer.h   **** 	void Reset() {
  64:Sequencer.h   **** 		currentStep = 0;
  65:Sequencer.h   **** 	}
  66:Sequencer.h   **** 
  67:Sequencer.h   **** 	bool IsActive() {
  68:Sequencer.h   **** 		return active;
  69:Sequencer.h   **** 	}
  70:Sequencer.h   **** 
  71:Sequencer.h   **** 	void SetActive(bool active) {this->active = active;}
  72:Sequencer.h   **** 
  73:Sequencer.h   **** 	uint16_t GetLED(size_t voiceID) {
  74:Sequencer.h   **** 		uint16_t led = 0;
  75:Sequencer.h   **** 		for (size_t i = 0; i < steps; i++) {
  76:Sequencer.h   **** 			if (stepsArray[voiceID][i].Active()) led |= 1 << i;
  77:Sequencer.h   **** 		}
  78:Sequencer.h   **** 		return led;
  79:Sequencer.h   **** 	}
  80:Sequencer.h   **** 
  81:Sequencer.h   **** 	void ToggleStep(size_t voiceID, size_t stepID) {
  82:Sequencer.h   **** 		stepsArray[voiceID][stepID].ToggleActive();
  83:Sequencer.h   **** 	}
  84:Sequencer.h   **** 
  85:Sequencer.h   **** 	void SetStep(size_t voiceID, size_t stepID, bool active) {
  86:Sequencer.h   **** 		stepsArray[voiceID][stepID].SetActive(active);
  87:Sequencer.h   **** 	}
  88:Sequencer.h   **** 
  89:Sequencer.h   **** 	void SetStepVelocity(size_t voiceID, size_t stepID, uint8_t velocity) {
  90:Sequencer.h   **** 		stepsArray[voiceID][stepID].SetVelocity(velocity);
  91:Sequencer.h   **** 	}
  92:Sequencer.h   **** 
  93:Sequencer.h   **** 	uint8_t GetStepVelocity(size_t voiceID, size_t stepID) {
  94:Sequencer.h   **** 		return stepsArray[voiceID][stepID].GetVelocity();
  95:Sequencer.h   **** 	}
  96:Sequencer.h   **** 
  97:Sequencer.h   **** 	uint8_t GetVelocity(size_t voiceID) {
  98:Sequencer.h   **** 		return stepsArray[voiceID][currentStep].GetVelocity();
  99:Sequencer.h   **** 	}
ARM GAS  /var/folders/z5/_7t90xy14zq1swjhncg0p5z00000gn/T//ccqpyGtJ.s 			page 15


 100:Sequencer.h   **** 
 101:Sequencer.h   **** 	void IncrementStepVelocity(size_t voiceID, size_t stepID, int8_t increment) {
 102:Sequencer.h   **** 		if (increment > 0) stepsArray[voiceID][stepID].IncrementVelocity();
 103:Sequencer.h   **** 		if (increment < 0) stepsArray[voiceID][stepID].DecrementVelocity();
 104:Sequencer.h   **** 	}
 105:Sequencer.h   **** 
 106:Sequencer.h   **** 	float GetCurrentStepVelocity(uint8_t voiceID) {
 107:Sequencer.h   **** 		return stepsArray[voiceID][currentStep].GetVelocityFloat();
 108:Sequencer.h   **** 	}
 109:Sequencer.h   **** 
 110:Sequencer.h   **** 
 111:Sequencer.h   **** };
 112:Sequencer.h   **** 
 113:Sequencer.h   **** template <size_t sequences, size_t voices, size_t steps>
 114:Sequencer.h   **** class Sequencer {
 168              		.loc 10 114 7 is_stmt 1 view -0
 169              		.cfi_startproc
 170              		@ args = 0, pretend = 0, frame = 0
 171              		@ frame_needed = 0, uses_anonymous_args = 0
 172              		@ link register save eliminated.
 173              	.LBB548:
 174              	.LBI548:
 175              		.loc 8 15 5 view .LVU19
 176              		.loc 8 15 5 is_stmt 0 view .LVU20
 177              	.LBE548:
 178              		.loc 10 114 7 view .LVU21
 179 0000 7047     		bx	lr
 180              		.cfi_endproc
 181              	.LFE5565:
 183              		.weak	_ZN9SequencerILj16ELj16ELj16EED1Ev
 184              		.thumb_set _ZN9SequencerILj16ELj16ELj16EED1Ev,_ZN9SequencerILj16ELj16ELj16EED2Ev
 185              		.section	.text._ZN11InputDriverD2Ev,"axG",%progbits,_ZN11InputDriverD5Ev,comdat
 186              		.align	1
 187              		.weak	_ZN11InputDriverD2Ev
 188              		.syntax unified
 189              		.thumb
 190              		.thumb_func
 192              	_ZN11InputDriverD2Ev:
 193              	.LVL6:
 194              	.LFB5568:
 195              		.file 11 "InputDriver.h"
   1:InputDriver.h **** #pragma once
   2:InputDriver.h **** #ifndef DSY_INPUT_DRIVER_H
   3:InputDriver.h **** #define DSY_INPUT_DRIVER_H
   4:InputDriver.h **** #include "daisy.h"
   5:InputDriver.h **** #include "StepButtons.h"
   6:InputDriver.h **** #include "EncoderPush.h"
   7:InputDriver.h **** #include "util/ringbuffer.h"
   8:InputDriver.h **** 
   9:InputDriver.h **** /** 
  10:InputDriver.h ****     @author Hayden Barry
  11:InputDriver.h ****     @date Febuary 2024
  12:InputDriver.h **** */
  13:InputDriver.h **** using namespace daisy;
  14:InputDriver.h **** 
  15:InputDriver.h **** struct Input {
  16:InputDriver.h **** 	uint8_t id;
ARM GAS  /var/folders/z5/_7t90xy14zq1swjhncg0p5z00000gn/T//ccqpyGtJ.s 			page 16


  17:InputDriver.h **** 	uint8_t modifier;
  18:InputDriver.h **** 	uint8_t action;
  19:InputDriver.h **** 	uint8_t index;
  20:InputDriver.h **** 	uint8_t mod_index;
  21:InputDriver.h **** 
  22:InputDriver.h **** 
  23:InputDriver.h **** 	enum ID : uint8_t {NO_ID, ENC, PLAY, STOP, STEP};
  24:InputDriver.h **** 	enum MOD : uint8_t {NO_MOD, SHFT, MOD_STEP};
  25:InputDriver.h **** 	enum ACT : uint8_t {NO_ACT, DOWN, UP, INC, DEC};
  26:InputDriver.h **** 	bool IsEncoder() {return id == ENC;}
  27:InputDriver.h **** 	bool isStep() {return id == STEP;}
  28:InputDriver.h **** 	bool isPlay() {return id == PLAY;}
  29:InputDriver.h **** 	bool isStop() {return id == STOP;}
  30:InputDriver.h **** 	bool up() {return action == UP;}
  31:InputDriver.h **** 	bool down() {return action == DOWN;}
  32:InputDriver.h **** 	bool right() {return action == INC;}
  33:InputDriver.h **** 	bool left() {return action == DEC;}
  34:InputDriver.h **** 	bool shift() {return modifier == SHFT;}
  35:InputDriver.h **** 	int increment() {
  36:InputDriver.h **** 		if (id == ENC && right()) return 1;
  37:InputDriver.h **** 		if (id == ENC && left()) return -1;
  38:InputDriver.h **** 		return 0;
  39:InputDriver.h **** 	}
  40:InputDriver.h **** };
  41:InputDriver.h **** 
  42:InputDriver.h **** class InputDriver {
 196              		.loc 11 42 7 is_stmt 1 view -0
 197              		.cfi_startproc
 198              		@ args = 0, pretend = 0, frame = 0
 199              		@ frame_needed = 0, uses_anonymous_args = 0
 200              		@ link register save eliminated.
 201              	.LBB549:
 202              	.LBI549:
 203              		.file 12 "../../libDaisy//src/hid/switch.h"
   1:../../libDaisy//src/hid/switch.h **** #pragma once
   2:../../libDaisy//src/hid/switch.h **** #ifndef DSY_SWITCH_H
   3:../../libDaisy//src/hid/switch.h **** #define DSY_SWITCH_H
   4:../../libDaisy//src/hid/switch.h **** #include "daisy_core.h"
   5:../../libDaisy//src/hid/switch.h **** #include "per/gpio.h"
   6:../../libDaisy//src/hid/switch.h **** #include "sys/system.h"
   7:../../libDaisy//src/hid/switch.h **** 
   8:../../libDaisy//src/hid/switch.h **** namespace daisy
   9:../../libDaisy//src/hid/switch.h **** {
  10:../../libDaisy//src/hid/switch.h **** /** 
  11:../../libDaisy//src/hid/switch.h ****     Generic Class for handling momentary/latching switches \n 
  12:../../libDaisy//src/hid/switch.h ****     Inspired/influenced by Mutable Instruments (pichenettes) Switch classes
  13:../../libDaisy//src/hid/switch.h ****     @author Stephen Hensley
  14:../../libDaisy//src/hid/switch.h ****     @date December 2019
  15:../../libDaisy//src/hid/switch.h ****     @ingroup controls
  16:../../libDaisy//src/hid/switch.h **** */
  17:../../libDaisy//src/hid/switch.h **** class Switch
  18:../../libDaisy//src/hid/switch.h **** {
  19:../../libDaisy//src/hid/switch.h ****   public:
  20:../../libDaisy//src/hid/switch.h ****     /** Specifies the expected behavior of the switch */
  21:../../libDaisy//src/hid/switch.h ****     enum Type
  22:../../libDaisy//src/hid/switch.h ****     {
  23:../../libDaisy//src/hid/switch.h ****         TYPE_TOGGLE,    /**< & */
ARM GAS  /var/folders/z5/_7t90xy14zq1swjhncg0p5z00000gn/T//ccqpyGtJ.s 			page 17


  24:../../libDaisy//src/hid/switch.h ****         TYPE_MOMENTARY, /**< & */
  25:../../libDaisy//src/hid/switch.h ****     };
  26:../../libDaisy//src/hid/switch.h ****     /** Specifies whether the pressed is HIGH or LOW. */
  27:../../libDaisy//src/hid/switch.h ****     enum Polarity
  28:../../libDaisy//src/hid/switch.h ****     {
  29:../../libDaisy//src/hid/switch.h ****         POLARITY_NORMAL,   /**< & */
  30:../../libDaisy//src/hid/switch.h ****         POLARITY_INVERTED, /**< & */
  31:../../libDaisy//src/hid/switch.h ****     };
  32:../../libDaisy//src/hid/switch.h **** 
  33:../../libDaisy//src/hid/switch.h ****     /** Specifies whether to use built-in Pull Up/Down resistors to hold button at a given state wh
  34:../../libDaisy//src/hid/switch.h ****     enum Pull
  35:../../libDaisy//src/hid/switch.h ****     {
  36:../../libDaisy//src/hid/switch.h ****         PULL_UP,   /**< & */
  37:../../libDaisy//src/hid/switch.h ****         PULL_DOWN, /**< & */
  38:../../libDaisy//src/hid/switch.h ****         PULL_NONE, /**< & */
  39:../../libDaisy//src/hid/switch.h ****     };
  40:../../libDaisy//src/hid/switch.h **** 
  41:../../libDaisy//src/hid/switch.h ****     Switch() {}
  42:../../libDaisy//src/hid/switch.h ****     ~Switch() {}
 204              		.loc 12 42 5 view .LVU23
 205              		.loc 12 42 5 is_stmt 0 view .LVU24
 206              	.LBE549:
 207              	.LBB550:
 208              	.LBI550:
 209              		.loc 12 42 5 is_stmt 1 view .LVU25
 210              		.loc 12 42 5 is_stmt 0 view .LVU26
 211              	.LBE550:
 212              	.LBB551:
 213              	.LBI551:
 214              		.loc 12 42 5 is_stmt 1 view .LVU27
 215              		.loc 12 42 5 is_stmt 0 view .LVU28
 216              	.LBE551:
 217              	.LBB552:
 218              	.LBI552:
 219              		.file 13 "StepButtons.h"
   1:StepButtons.h **** #pragma once
   2:StepButtons.h **** #ifndef DSY_STEP_BUTTONS_H
   3:StepButtons.h **** #define DSY_STEP_BUTTONS_H
   4:StepButtons.h **** #include "daisy.h"
   5:StepButtons.h **** #include "per/gpio.h"
   6:StepButtons.h **** #include "sys/system.h"
   7:StepButtons.h **** #include "per/spi.h"
   8:StepButtons.h **** /** 
   9:StepButtons.h ****     @author Hayden Barry
  10:StepButtons.h ****     @date Febuary 2024
  11:StepButtons.h **** */
  12:StepButtons.h **** using namespace daisy;
  13:StepButtons.h **** class StepButtons
  14:StepButtons.h **** {
  15:StepButtons.h ****   public:
  16:StepButtons.h **** 
  17:StepButtons.h ****     StepButtons() {}
  18:StepButtons.h ****     ~StepButtons() {}
 220              		.loc 13 18 5 is_stmt 1 view .LVU29
 221              		.loc 13 18 5 is_stmt 0 view .LVU30
 222              	.LBE552:
 223              		.loc 11 42 7 view .LVU31
ARM GAS  /var/folders/z5/_7t90xy14zq1swjhncg0p5z00000gn/T//ccqpyGtJ.s 			page 18


 224 0000 7047     		bx	lr
 225              		.cfi_endproc
 226              	.LFE5568:
 228              		.weak	_ZN11InputDriverD1Ev
 229              		.thumb_set _ZN11InputDriverD1Ev,_ZN11InputDriverD2Ev
 230              		.section	.text._ZN5daisy11OledDisplayINS_13SSD130xDriverILj128ELj64ENS_19SSD130xI2CTransportEEEED2
 231              		.align	1
 232              		.weak	_ZN5daisy11OledDisplayINS_13SSD130xDriverILj128ELj64ENS_19SSD130xI2CTransportEEEED2Ev
 233              		.syntax unified
 234              		.thumb
 235              		.thumb_func
 237              	_ZN5daisy11OledDisplayINS_13SSD130xDriverILj128ELj64ENS_19SSD130xI2CTransportEEEED2Ev:
 238              	.LVL7:
 239              	.LFB5571:
 240              		.file 14 "../../libDaisy//src/hid/disp/oled_display.h"
   1:../../libDaisy//src/hid/disp/oled_display.h **** #pragma once
   2:../../libDaisy//src/hid/disp/oled_display.h **** #ifndef DSY_OLED_DISPLAY_H
   3:../../libDaisy//src/hid/disp/oled_display.h **** #define DSY_OLED_DISPLAY_H /**< Macro */
   4:../../libDaisy//src/hid/disp/oled_display.h **** 
   5:../../libDaisy//src/hid/disp/oled_display.h **** #include "display.h"
   6:../../libDaisy//src/hid/disp/oled_display.h **** 
   7:../../libDaisy//src/hid/disp/oled_display.h **** namespace daisy
   8:../../libDaisy//src/hid/disp/oled_display.h **** {
   9:../../libDaisy//src/hid/disp/oled_display.h **** /** 
  10:../../libDaisy//src/hid/disp/oled_display.h ****  * This class is for drawing to a monochrome OLED display. 
  11:../../libDaisy//src/hid/disp/oled_display.h ****  * @ingroup device
  12:../../libDaisy//src/hid/disp/oled_display.h **** */
  13:../../libDaisy//src/hid/disp/oled_display.h **** template <typename DisplayDriver>
  14:../../libDaisy//src/hid/disp/oled_display.h **** class OledDisplay : public OneBitGraphicsDisplayImpl<OledDisplay<DisplayDriver>>
  15:../../libDaisy//src/hid/disp/oled_display.h **** {
  16:../../libDaisy//src/hid/disp/oled_display.h ****   public:
  17:../../libDaisy//src/hid/disp/oled_display.h ****     OledDisplay() {}
  18:../../libDaisy//src/hid/disp/oled_display.h ****     virtual ~OledDisplay() {}
 241              		.loc 14 18 13 is_stmt 1 view -0
 242              		.cfi_startproc
 243              		@ args = 0, pretend = 0, frame = 0
 244              		@ frame_needed = 0, uses_anonymous_args = 0
 245              		@ link register save eliminated.
 246              	.LBB553:
 247              	.LBI553:
 248              		.file 15 "../../libDaisy//src/hid/disp/display.h"
   1:../../libDaisy//src/hid/disp/display.h **** #pragma once
   2:../../libDaisy//src/hid/disp/display.h **** #ifndef DSY_DISPLAY_H
   3:../../libDaisy//src/hid/disp/display.h **** #define DSY_DISPLAY_H /**< Macro */
   4:../../libDaisy//src/hid/disp/display.h **** #include <cmath>
   5:../../libDaisy//src/hid/disp/display.h **** #include "util/oled_fonts.h"
   6:../../libDaisy//src/hid/disp/display.h **** #include "daisy_core.h"
   7:../../libDaisy//src/hid/disp/display.h **** #include "graphics_common.h"
   8:../../libDaisy//src/hid/disp/display.h **** 
   9:../../libDaisy//src/hid/disp/display.h **** #ifndef deg2rad
  10:../../libDaisy//src/hid/disp/display.h **** #define deg2rad(deg) ((deg)*3.141592 / 180.0)
  11:../../libDaisy//src/hid/disp/display.h **** #endif
  12:../../libDaisy//src/hid/disp/display.h **** 
  13:../../libDaisy//src/hid/disp/display.h **** namespace daisy
  14:../../libDaisy//src/hid/disp/display.h **** {
  15:../../libDaisy//src/hid/disp/display.h **** /** 
  16:../../libDaisy//src/hid/disp/display.h ****  * This interface is used as a base class for all types of 1bit-per-pixel
ARM GAS  /var/folders/z5/_7t90xy14zq1swjhncg0p5z00000gn/T//ccqpyGtJ.s 			page 19


  17:../../libDaisy//src/hid/disp/display.h ****  * graphics displays.
  18:../../libDaisy//src/hid/disp/display.h **** */
  19:../../libDaisy//src/hid/disp/display.h **** class OneBitGraphicsDisplay
  20:../../libDaisy//src/hid/disp/display.h **** {
  21:../../libDaisy//src/hid/disp/display.h ****   public:
  22:../../libDaisy//src/hid/disp/display.h ****     OneBitGraphicsDisplay() {}
  23:../../libDaisy//src/hid/disp/display.h ****     virtual ~OneBitGraphicsDisplay() {}
  24:../../libDaisy//src/hid/disp/display.h **** 
  25:../../libDaisy//src/hid/disp/display.h ****     virtual uint16_t Height() const = 0;
  26:../../libDaisy//src/hid/disp/display.h ****     virtual uint16_t Width() const  = 0;
  27:../../libDaisy//src/hid/disp/display.h **** 
  28:../../libDaisy//src/hid/disp/display.h ****     Rectangle GetBounds() const
  29:../../libDaisy//src/hid/disp/display.h ****     {
  30:../../libDaisy//src/hid/disp/display.h ****         return Rectangle(int16_t(Width()), int16_t(Height()));
  31:../../libDaisy//src/hid/disp/display.h ****     }
  32:../../libDaisy//src/hid/disp/display.h **** 
  33:../../libDaisy//src/hid/disp/display.h **** 
  34:../../libDaisy//src/hid/disp/display.h ****     size_t CurrentX() { return currentX_; };
  35:../../libDaisy//src/hid/disp/display.h ****     size_t CurrentY() { return currentY_; };
  36:../../libDaisy//src/hid/disp/display.h **** 
  37:../../libDaisy//src/hid/disp/display.h ****     /** 
  38:../../libDaisy//src/hid/disp/display.h ****     Fills the entire display with either on/off.
  39:../../libDaisy//src/hid/disp/display.h ****     \param on Sets on or off.
  40:../../libDaisy//src/hid/disp/display.h ****     */
  41:../../libDaisy//src/hid/disp/display.h ****     virtual void Fill(bool on) = 0;
  42:../../libDaisy//src/hid/disp/display.h **** 
  43:../../libDaisy//src/hid/disp/display.h ****     /**
  44:../../libDaisy//src/hid/disp/display.h ****     Sets the pixel at the specified coordinate to be on/off.
  45:../../libDaisy//src/hid/disp/display.h ****     \param x   x Coordinate
  46:../../libDaisy//src/hid/disp/display.h ****     \param y   y coordinate
  47:../../libDaisy//src/hid/disp/display.h ****     \param on  on or off
  48:../../libDaisy//src/hid/disp/display.h ****     */
  49:../../libDaisy//src/hid/disp/display.h ****     virtual void DrawPixel(uint_fast8_t x, uint_fast8_t y, bool on) = 0;
  50:../../libDaisy//src/hid/disp/display.h **** 
  51:../../libDaisy//src/hid/disp/display.h ****     /**
  52:../../libDaisy//src/hid/disp/display.h ****     Draws a line from (x1, y1) to (y1, y2)
  53:../../libDaisy//src/hid/disp/display.h ****     \param x1  x Coordinate of the starting point
  54:../../libDaisy//src/hid/disp/display.h ****     \param y1  y Coordinate of the starting point
  55:../../libDaisy//src/hid/disp/display.h ****     \param x2  x Coordinate of the ending point
  56:../../libDaisy//src/hid/disp/display.h ****     \param y2  y Coordinate of the ending point
  57:../../libDaisy//src/hid/disp/display.h ****     \param on  on or off
  58:../../libDaisy//src/hid/disp/display.h ****     */
  59:../../libDaisy//src/hid/disp/display.h ****     virtual void DrawLine(uint_fast8_t x1,
  60:../../libDaisy//src/hid/disp/display.h ****                           uint_fast8_t y1,
  61:../../libDaisy//src/hid/disp/display.h ****                           uint_fast8_t x2,
  62:../../libDaisy//src/hid/disp/display.h ****                           uint_fast8_t y2,
  63:../../libDaisy//src/hid/disp/display.h ****                           bool         on)
  64:../../libDaisy//src/hid/disp/display.h ****         = 0;
  65:../../libDaisy//src/hid/disp/display.h **** 
  66:../../libDaisy//src/hid/disp/display.h ****     /**
  67:../../libDaisy//src/hid/disp/display.h ****     Draws a rectangle based on two coordinates.
  68:../../libDaisy//src/hid/disp/display.h ****     \param x1 x Coordinate of the first point
  69:../../libDaisy//src/hid/disp/display.h ****     \param y1 y Coordinate of the first point
  70:../../libDaisy//src/hid/disp/display.h ****     \param x2 x Coordinate of the second point
  71:../../libDaisy//src/hid/disp/display.h ****     \param y2 y Coordinate of the second point
  72:../../libDaisy//src/hid/disp/display.h ****     \param on on or off
  73:../../libDaisy//src/hid/disp/display.h ****     \param fill fill the rectangle or draw only the outline
ARM GAS  /var/folders/z5/_7t90xy14zq1swjhncg0p5z00000gn/T//ccqpyGtJ.s 			page 20


  74:../../libDaisy//src/hid/disp/display.h ****     */
  75:../../libDaisy//src/hid/disp/display.h ****     virtual void DrawRect(uint_fast8_t x1,
  76:../../libDaisy//src/hid/disp/display.h ****                           uint_fast8_t y1,
  77:../../libDaisy//src/hid/disp/display.h ****                           uint_fast8_t x2,
  78:../../libDaisy//src/hid/disp/display.h ****                           uint_fast8_t y2,
  79:../../libDaisy//src/hid/disp/display.h ****                           bool         on,
  80:../../libDaisy//src/hid/disp/display.h ****                           bool         fill = false)
  81:../../libDaisy//src/hid/disp/display.h ****         = 0;
  82:../../libDaisy//src/hid/disp/display.h **** 
  83:../../libDaisy//src/hid/disp/display.h ****     /**
  84:../../libDaisy//src/hid/disp/display.h ****     Draws a rectangle.
  85:../../libDaisy//src/hid/disp/display.h ****     \param rect the rectangle
  86:../../libDaisy//src/hid/disp/display.h ****     \param on   on or off
  87:../../libDaisy//src/hid/disp/display.h ****     \param fill fill the rectangle or draw only the outline
  88:../../libDaisy//src/hid/disp/display.h ****     */
  89:../../libDaisy//src/hid/disp/display.h ****     void DrawRect(const Rectangle& rect, bool on, bool fill = false)
  90:../../libDaisy//src/hid/disp/display.h ****     {
  91:../../libDaisy//src/hid/disp/display.h ****         DrawRect(rect.GetX(),
  92:../../libDaisy//src/hid/disp/display.h ****                  rect.GetY(),
  93:../../libDaisy//src/hid/disp/display.h ****                  rect.GetRight(),
  94:../../libDaisy//src/hid/disp/display.h ****                  rect.GetBottom(),
  95:../../libDaisy//src/hid/disp/display.h ****                  on,
  96:../../libDaisy//src/hid/disp/display.h ****                  fill);
  97:../../libDaisy//src/hid/disp/display.h ****     }
  98:../../libDaisy//src/hid/disp/display.h **** 
  99:../../libDaisy//src/hid/disp/display.h ****     /**
 100:../../libDaisy//src/hid/disp/display.h ****     Draws an arc around the specified coordinate
 101:../../libDaisy//src/hid/disp/display.h ****     \param x           x Coordinate of the center of the arc
 102:../../libDaisy//src/hid/disp/display.h ****     \param y           y Coordinate of the center of the arc
 103:../../libDaisy//src/hid/disp/display.h ****     \param radius      radius of the arc
 104:../../libDaisy//src/hid/disp/display.h ****     \param start_angle angle where to start the arc
 105:../../libDaisy//src/hid/disp/display.h ****     \param sweep       total angle of the arc
 106:../../libDaisy//src/hid/disp/display.h ****     \param on  on or off
 107:../../libDaisy//src/hid/disp/display.h ****     */
 108:../../libDaisy//src/hid/disp/display.h ****     virtual void DrawArc(uint_fast8_t x,
 109:../../libDaisy//src/hid/disp/display.h ****                          uint_fast8_t y,
 110:../../libDaisy//src/hid/disp/display.h ****                          uint_fast8_t radius,
 111:../../libDaisy//src/hid/disp/display.h ****                          int_fast16_t start_angle,
 112:../../libDaisy//src/hid/disp/display.h ****                          int_fast16_t sweep,
 113:../../libDaisy//src/hid/disp/display.h ****                          bool         on)
 114:../../libDaisy//src/hid/disp/display.h ****         = 0;
 115:../../libDaisy//src/hid/disp/display.h **** 
 116:../../libDaisy//src/hid/disp/display.h ****     /**
 117:../../libDaisy//src/hid/disp/display.h ****     Draws a circle around the specified coordinate
 118:../../libDaisy//src/hid/disp/display.h ****     \param x           x Coordinate of the center of the circle
 119:../../libDaisy//src/hid/disp/display.h ****     \param y           y Coordinate of the center of the circle
 120:../../libDaisy//src/hid/disp/display.h ****     \param radius      radius of the circle
 121:../../libDaisy//src/hid/disp/display.h ****     \param on  on or off
 122:../../libDaisy//src/hid/disp/display.h ****     */
 123:../../libDaisy//src/hid/disp/display.h ****     void
 124:../../libDaisy//src/hid/disp/display.h ****     DrawCircle(uint_fast8_t x, uint_fast8_t y, uint_fast8_t radius, bool on)
 125:../../libDaisy//src/hid/disp/display.h ****     {
 126:../../libDaisy//src/hid/disp/display.h ****         DrawArc(x, y, radius, 0, 360, on);
 127:../../libDaisy//src/hid/disp/display.h ****     };
 128:../../libDaisy//src/hid/disp/display.h **** 
 129:../../libDaisy//src/hid/disp/display.h ****     /** 
 130:../../libDaisy//src/hid/disp/display.h ****     Writes the character with the specific FontDef
ARM GAS  /var/folders/z5/_7t90xy14zq1swjhncg0p5z00000gn/T//ccqpyGtJ.s 			page 21


 131:../../libDaisy//src/hid/disp/display.h ****     to the display buffer at the current Cursor position.
 132:../../libDaisy//src/hid/disp/display.h ****     \param ch character to be written
 133:../../libDaisy//src/hid/disp/display.h ****     \param font font to be written in
 134:../../libDaisy//src/hid/disp/display.h ****     \param on    on or off
 135:../../libDaisy//src/hid/disp/display.h ****     \return &
 136:../../libDaisy//src/hid/disp/display.h ****     */
 137:../../libDaisy//src/hid/disp/display.h ****     virtual char WriteChar(char ch, FontDef font, bool on) = 0;
 138:../../libDaisy//src/hid/disp/display.h **** 
 139:../../libDaisy//src/hid/disp/display.h ****     /** 
 140:../../libDaisy//src/hid/disp/display.h ****     Similar to WriteChar, except it will handle an entire String.
 141:../../libDaisy//src/hid/disp/display.h ****     Wrapping does not happen automatically, so the width
 142:../../libDaisy//src/hid/disp/display.h ****     of the string must be kept within the dimensions of the screen.
 143:../../libDaisy//src/hid/disp/display.h ****     \param str string to be written
 144:../../libDaisy//src/hid/disp/display.h ****     \param font font to use
 145:../../libDaisy//src/hid/disp/display.h ****     \param on  on or off
 146:../../libDaisy//src/hid/disp/display.h ****     \return &
 147:../../libDaisy//src/hid/disp/display.h ****     */
 148:../../libDaisy//src/hid/disp/display.h ****     virtual char WriteString(const char* str, FontDef font, bool on) = 0;
 149:../../libDaisy//src/hid/disp/display.h **** 
 150:../../libDaisy//src/hid/disp/display.h ****     /** 
 151:../../libDaisy//src/hid/disp/display.h ****     Similar to WriteString but justified within a bounding box.
 152:../../libDaisy//src/hid/disp/display.h ****     \param str          string to be written
 153:../../libDaisy//src/hid/disp/display.h ****     \param font         font to use
 154:../../libDaisy//src/hid/disp/display.h ****     \param boundingBox  the bounding box to draw the text in
 155:../../libDaisy//src/hid/disp/display.h ****     \param alignment    the alignment to use
 156:../../libDaisy//src/hid/disp/display.h ****     \param on           on or off
 157:../../libDaisy//src/hid/disp/display.h ****     \return The rectangle that was drawn to
 158:../../libDaisy//src/hid/disp/display.h ****     */
 159:../../libDaisy//src/hid/disp/display.h ****     virtual Rectangle WriteStringAligned(const char*    str,
 160:../../libDaisy//src/hid/disp/display.h ****                                          const FontDef& font,
 161:../../libDaisy//src/hid/disp/display.h ****                                          Rectangle      boundingBox,
 162:../../libDaisy//src/hid/disp/display.h ****                                          Alignment      alignment,
 163:../../libDaisy//src/hid/disp/display.h ****                                          bool           on)
 164:../../libDaisy//src/hid/disp/display.h ****         = 0;
 165:../../libDaisy//src/hid/disp/display.h **** 
 166:../../libDaisy//src/hid/disp/display.h ****     /** 
 167:../../libDaisy//src/hid/disp/display.h ****     Moves the 'Cursor' position used for WriteChar, and WriteStr to the specified coordinate.
 168:../../libDaisy//src/hid/disp/display.h ****     \param x x pos
 169:../../libDaisy//src/hid/disp/display.h ****     \param y y pos
 170:../../libDaisy//src/hid/disp/display.h ****     */
 171:../../libDaisy//src/hid/disp/display.h ****     void SetCursor(uint16_t x, uint16_t y)
 172:../../libDaisy//src/hid/disp/display.h ****     {
 173:../../libDaisy//src/hid/disp/display.h ****         currentX_ = (x >= Width()) ? Width() - 1 : x;
 174:../../libDaisy//src/hid/disp/display.h ****         currentY_ = (y >= Height()) ? Height() - 1 : y;
 175:../../libDaisy//src/hid/disp/display.h ****     }
 176:../../libDaisy//src/hid/disp/display.h **** 
 177:../../libDaisy//src/hid/disp/display.h ****     /** 
 178:../../libDaisy//src/hid/disp/display.h ****     Writes the current display buffer to the OLED device using SPI or I2C depending on 
 179:../../libDaisy//src/hid/disp/display.h ****     how the object was initialized.
 180:../../libDaisy//src/hid/disp/display.h ****     */
 181:../../libDaisy//src/hid/disp/display.h ****     virtual void Update() = 0;
 182:../../libDaisy//src/hid/disp/display.h **** 
 183:../../libDaisy//src/hid/disp/display.h ****   protected:
 184:../../libDaisy//src/hid/disp/display.h ****     uint16_t currentX_;
 185:../../libDaisy//src/hid/disp/display.h ****     uint16_t currentY_;
 186:../../libDaisy//src/hid/disp/display.h **** };
 187:../../libDaisy//src/hid/disp/display.h **** 
ARM GAS  /var/folders/z5/_7t90xy14zq1swjhncg0p5z00000gn/T//ccqpyGtJ.s 			page 22


 188:../../libDaisy//src/hid/disp/display.h **** /** This class is intended as a intermediary class for your actual implementation of the OneBitGrap
 189:../../libDaisy//src/hid/disp/display.h ****  *  interface. It uses the CRTP design pattern where the template argument is the child class. It p
 190:../../libDaisy//src/hid/disp/display.h ****  *  implementations for most of the functions, except DrawPixel(), Update() and Fill(), which you'l
 191:../../libDaisy//src/hid/disp/display.h ****  *  to provide in your child class.
 192:../../libDaisy//src/hid/disp/display.h ****  *  The main goal of this class is to provide common drawing functions without relying on massive a
 193:../../libDaisy//src/hid/disp/display.h ****  *  virtual function calls that would result in a performance loss. To achieve this, any drawing fu
 194:../../libDaisy//src/hid/disp/display.h ****  *  is implemented here and internally calls other drawing functions (e.g. DrawRect() which interna
 195:../../libDaisy//src/hid/disp/display.h ****  *  DrawPixel() and DrawLine()) makes these calls via the qualified name of these functions to expl
 196:../../libDaisy//src/hid/disp/display.h ****  *  suppress the virtual dispatch mechanism like this:
 197:../../libDaisy//src/hid/disp/display.h ****  * 
 198:../../libDaisy//src/hid/disp/display.h ****  *      ChildType::DrawPixel(...); // no virtual function call; direct call into the child class fu
 199:../../libDaisy//src/hid/disp/display.h ****  *  
 200:../../libDaisy//src/hid/disp/display.h ****  *  To create a custom OneBitGraphicsDisplay implementation, you can 
 201:../../libDaisy//src/hid/disp/display.h ****  *  A) inherit from OneBitGraphicsDisplay directly and provide all the drawing functions yourself
 202:../../libDaisy//src/hid/disp/display.h ****  *  B) Inherit from OneBitGraphicsDisplayImpl and only provide DrawPixel(), Fill() and Update()
 203:../../libDaisy//src/hid/disp/display.h ****  *     like this:
 204:../../libDaisy//src/hid/disp/display.h ****  *  
 205:../../libDaisy//src/hid/disp/display.h ****  *      class MyDisplayClass : public OneBitGraphicsDisplayImpl<MyDisplayClass> 
 206:../../libDaisy//src/hid/disp/display.h ****  *      {
 207:../../libDaisy//src/hid/disp/display.h ****  *      public:
 208:../../libDaisy//src/hid/disp/display.h ****  *          void Fill() override { ... };
 209:../../libDaisy//src/hid/disp/display.h ****  *          void DrawPixel(uint_fast8_t x, uint_fast8_t y, bool on) override { ... };
 210:../../libDaisy//src/hid/disp/display.h ****  *          void Update() override { ... }
 211:../../libDaisy//src/hid/disp/display.h ****  *      };
 212:../../libDaisy//src/hid/disp/display.h ****  *  
 213:../../libDaisy//src/hid/disp/display.h ****  */
 214:../../libDaisy//src/hid/disp/display.h **** template <class ChildType>
 215:../../libDaisy//src/hid/disp/display.h **** class OneBitGraphicsDisplayImpl : public OneBitGraphicsDisplay
 216:../../libDaisy//src/hid/disp/display.h **** {
 217:../../libDaisy//src/hid/disp/display.h ****   public:
 218:../../libDaisy//src/hid/disp/display.h ****     OneBitGraphicsDisplayImpl() {}
 219:../../libDaisy//src/hid/disp/display.h ****     virtual ~OneBitGraphicsDisplayImpl() {}
 249              		.loc 15 219 13 view .LVU33
 250              	.LBB554:
 251              	.LBI554:
  23:../../libDaisy//src/hid/disp/display.h **** 
 252              		.loc 15 23 13 view .LVU34
  23:../../libDaisy//src/hid/disp/display.h **** 
 253              		.loc 15 23 13 is_stmt 0 view .LVU35
 254              	.LBE554:
 255              	.LBE553:
 256              		.loc 14 18 29 view .LVU36
 257 0000 7047     		bx	lr
 258              		.cfi_endproc
 259              	.LFE5571:
 261              		.weak	_ZN5daisy11OledDisplayINS_13SSD130xDriverILj128ELj64ENS_19SSD130xI2CTransportEEEED1Ev
 262              		.thumb_set _ZN5daisy11OledDisplayINS_13SSD130xDriverILj128ELj64ENS_19SSD130xI2CTransportEEEED1Ev,_
 263              		.section	.text._ZNK5daisy11OledDisplayINS_13SSD130xDriverILj128ELj64ENS_19SSD130xI2CTransportEEEE6
 264              		.align	1
 265              		.weak	_ZNK5daisy11OledDisplayINS_13SSD130xDriverILj128ELj64ENS_19SSD130xI2CTransportEEEE6HeightEv
 266              		.syntax unified
 267              		.thumb
 268              		.thumb_func
 270              	_ZNK5daisy11OledDisplayINS_13SSD130xDriverILj128ELj64ENS_19SSD130xI2CTransportEEEE6HeightEv:
 271              	.LVL8:
 272              	.LFB5574:
  19:../../libDaisy//src/hid/disp/oled_display.h **** 
ARM GAS  /var/folders/z5/_7t90xy14zq1swjhncg0p5z00000gn/T//ccqpyGtJ.s 			page 23


  20:../../libDaisy//src/hid/disp/oled_display.h ****     struct Config
  21:../../libDaisy//src/hid/disp/oled_display.h ****     {
  22:../../libDaisy//src/hid/disp/oled_display.h ****         typename DisplayDriver::Config driver_config;
  23:../../libDaisy//src/hid/disp/oled_display.h ****     };
  24:../../libDaisy//src/hid/disp/oled_display.h **** 
  25:../../libDaisy//src/hid/disp/oled_display.h ****     void Init(Config config) { driver_.Init(config.driver_config); }
  26:../../libDaisy//src/hid/disp/oled_display.h **** 
  27:../../libDaisy//src/hid/disp/oled_display.h ****     uint16_t Height() const override { return driver_.Height(); }
 273              		.loc 14 27 14 is_stmt 1 view -0
 274              		.cfi_startproc
 275              		@ args = 0, pretend = 0, frame = 0
 276              		@ frame_needed = 0, uses_anonymous_args = 0
 277              		@ link register save eliminated.
 278              		.loc 14 27 65 is_stmt 0 view .LVU38
 279 0000 4020     		movs	r0, #64
 280              	.LVL9:
 281              		.loc 14 27 65 view .LVU39
 282 0002 7047     		bx	lr
 283              		.cfi_endproc
 284              	.LFE5574:
 286              		.section	.text._ZNK5daisy11OledDisplayINS_13SSD130xDriverILj128ELj64ENS_19SSD130xI2CTransportEEEE5
 287              		.align	1
 288              		.weak	_ZNK5daisy11OledDisplayINS_13SSD130xDriverILj128ELj64ENS_19SSD130xI2CTransportEEEE5WidthEv
 289              		.syntax unified
 290              		.thumb
 291              		.thumb_func
 293              	_ZNK5daisy11OledDisplayINS_13SSD130xDriverILj128ELj64ENS_19SSD130xI2CTransportEEEE5WidthEv:
 294              	.LVL10:
 295              	.LFB5575:
  28:../../libDaisy//src/hid/disp/oled_display.h ****     uint16_t Width() const override { return driver_.Width(); }
 296              		.loc 14 28 14 is_stmt 1 view -0
 297              		.cfi_startproc
 298              		@ args = 0, pretend = 0, frame = 0
 299              		@ frame_needed = 0, uses_anonymous_args = 0
 300              		@ link register save eliminated.
 301              		.loc 14 28 63 is_stmt 0 view .LVU41
 302 0000 8020     		movs	r0, #128
 303              	.LVL11:
 304              		.loc 14 28 63 view .LVU42
 305 0002 7047     		bx	lr
 306              		.cfi_endproc
 307              	.LFE5575:
 309              		.section	.text._ZN5daisy11OledDisplayINS_13SSD130xDriverILj128ELj64ENS_19SSD130xI2CTransportEEEED0
 310              		.align	1
 311              		.weak	_ZN5daisy11OledDisplayINS_13SSD130xDriverILj128ELj64ENS_19SSD130xI2CTransportEEEED0Ev
 312              		.syntax unified
 313              		.thumb
 314              		.thumb_func
 316              	_ZN5daisy11OledDisplayINS_13SSD130xDriverILj128ELj64ENS_19SSD130xI2CTransportEEEED0Ev:
 317              	.LVL12:
 318              	.LFB5573:
  18:../../libDaisy//src/hid/disp/oled_display.h **** 
 319              		.loc 14 18 13 is_stmt 1 view -0
 320              		.cfi_startproc
 321              		@ args = 0, pretend = 0, frame = 0
 322              		@ frame_needed = 0, uses_anonymous_args = 0
  18:../../libDaisy//src/hid/disp/oled_display.h **** 
ARM GAS  /var/folders/z5/_7t90xy14zq1swjhncg0p5z00000gn/T//ccqpyGtJ.s 			page 24


 323              		.loc 14 18 13 is_stmt 0 view .LVU44
 324 0000 10B5     		push	{r4, lr}
 325              		.cfi_def_cfa_offset 8
 326              		.cfi_offset 4, -8
 327              		.cfi_offset 14, -4
  18:../../libDaisy//src/hid/disp/oled_display.h **** 
 328              		.loc 14 18 13 view .LVU45
 329 0002 0446     		mov	r4, r0
 330              	.LVL13:
 331              	.LBB555:
 332              	.LBI555:
  18:../../libDaisy//src/hid/disp/oled_display.h **** 
 333              		.loc 14 18 13 is_stmt 1 view .LVU46
 334              	.LBB556:
 335              	.LBI556:
 336              		.loc 15 219 13 view .LVU47
 337              	.LBB557:
 338              	.LBI557:
  23:../../libDaisy//src/hid/disp/display.h **** 
 339              		.loc 15 23 13 view .LVU48
  23:../../libDaisy//src/hid/disp/display.h **** 
 340              		.loc 15 23 13 is_stmt 0 view .LVU49
 341              	.LBE557:
 342              	.LBE556:
 343              	.LBE555:
  18:../../libDaisy//src/hid/disp/oled_display.h **** 
 344              		.loc 14 18 29 view .LVU50
 345 0004 4FF48261 		mov	r1, #1040
 346 0008 FFF7FEFF 		bl	_ZdlPvj
 347              	.LVL14:
  18:../../libDaisy//src/hid/disp/oled_display.h **** 
 348              		.loc 14 18 29 view .LVU51
 349 000c 2046     		mov	r0, r4
 350 000e 10BD     		pop	{r4, pc}
  18:../../libDaisy//src/hid/disp/oled_display.h **** 
 351              		.loc 14 18 29 view .LVU52
 352              		.cfi_endproc
 353              	.LFE5573:
 355              		.section	.text._ZN5daisy21OneBitGraphicsDisplay9SetCursorEtt,"axG",%progbits,_ZN5daisy21OneBitGrap
 356              		.align	1
 357              		.weak	_ZN5daisy21OneBitGraphicsDisplay9SetCursorEtt
 358              		.syntax unified
 359              		.thumb
 360              		.thumb_func
 362              	_ZN5daisy21OneBitGraphicsDisplay9SetCursorEtt:
 363              	.LVL15:
 364              	.LFB1775:
 171:../../libDaisy//src/hid/disp/display.h ****     {
 365              		.loc 15 171 10 is_stmt 1 view -0
 366              		.cfi_startproc
 367              		@ args = 0, pretend = 0, frame = 0
 368              		@ frame_needed = 0, uses_anonymous_args = 0
 173:../../libDaisy//src/hid/disp/display.h ****         currentY_ = (y >= Height()) ? Height() - 1 : y;
 369              		.loc 15 173 9 view .LVU54
 173:../../libDaisy//src/hid/disp/display.h ****         currentY_ = (y >= Height()) ? Height() - 1 : y;
 370              		.loc 15 173 33 is_stmt 0 view .LVU55
 371 0000 0368     		ldr	r3, [r0]
ARM GAS  /var/folders/z5/_7t90xy14zq1swjhncg0p5z00000gn/T//ccqpyGtJ.s 			page 25


 171:../../libDaisy//src/hid/disp/display.h ****     {
 372              		.loc 15 171 10 view .LVU56
 373 0002 70B5     		push	{r4, r5, r6, lr}
 374              		.cfi_def_cfa_offset 16
 375              		.cfi_offset 4, -16
 376              		.cfi_offset 5, -12
 377              		.cfi_offset 6, -8
 378              		.cfi_offset 14, -4
 171:../../libDaisy//src/hid/disp/display.h ****     {
 379              		.loc 15 171 10 view .LVU57
 380 0004 0E46     		mov	r6, r1
 173:../../libDaisy//src/hid/disp/display.h ****         currentY_ = (y >= Height()) ? Height() - 1 : y;
 381              		.loc 15 173 32 view .LVU58
 382 0006 DB68     		ldr	r3, [r3, #12]
 171:../../libDaisy//src/hid/disp/display.h ****     {
 383              		.loc 15 171 10 view .LVU59
 384 0008 0446     		mov	r4, r0
 385 000a 1546     		mov	r5, r2
 173:../../libDaisy//src/hid/disp/display.h ****         currentY_ = (y >= Height()) ? Height() - 1 : y;
 386              		.loc 15 173 32 view .LVU60
 387 000c 9847     		blx	r3
 388              	.LVL16:
 173:../../libDaisy//src/hid/disp/display.h ****         currentY_ = (y >= Height()) ? Height() - 1 : y;
 389              		.loc 15 173 19 view .LVU61
 390 000e B042     		cmp	r0, r6
 391 0010 05D8     		bhi	.L13
 173:../../libDaisy//src/hid/disp/display.h ****         currentY_ = (y >= Height()) ? Height() - 1 : y;
 392              		.loc 15 173 44 discriminator 1 view .LVU62
 393 0012 2368     		ldr	r3, [r4]
 173:../../libDaisy//src/hid/disp/display.h ****         currentY_ = (y >= Height()) ? Height() - 1 : y;
 394              		.loc 15 173 43 discriminator 1 view .LVU63
 395 0014 2046     		mov	r0, r4
 396 0016 DB68     		ldr	r3, [r3, #12]
 397 0018 9847     		blx	r3
 398              	.LVL17:
 173:../../libDaisy//src/hid/disp/display.h ****         currentY_ = (y >= Height()) ? Height() - 1 : y;
 399              		.loc 15 173 19 discriminator 1 view .LVU64
 400 001a 0138     		subs	r0, r0, #1
 401 001c 86B2     		uxth	r6, r0
 402              	.L13:
 174:../../libDaisy//src/hid/disp/display.h ****     }
 403              		.loc 15 174 34 discriminator 4 view .LVU65
 404 001e 2368     		ldr	r3, [r4]
 174:../../libDaisy//src/hid/disp/display.h ****     }
 405              		.loc 15 174 33 discriminator 4 view .LVU66
 406 0020 2046     		mov	r0, r4
 173:../../libDaisy//src/hid/disp/display.h ****         currentY_ = (y >= Height()) ? Height() - 1 : y;
 407              		.loc 15 173 19 discriminator 4 view .LVU67
 408 0022 A680     		strh	r6, [r4, #4]	@ movhi
 174:../../libDaisy//src/hid/disp/display.h ****     }
 409              		.loc 15 174 9 is_stmt 1 discriminator 4 view .LVU68
 174:../../libDaisy//src/hid/disp/display.h ****     }
 410              		.loc 15 174 33 is_stmt 0 discriminator 4 view .LVU69
 411 0024 9B68     		ldr	r3, [r3, #8]
 412 0026 9847     		blx	r3
 413              	.LVL18:
 174:../../libDaisy//src/hid/disp/display.h ****     }
ARM GAS  /var/folders/z5/_7t90xy14zq1swjhncg0p5z00000gn/T//ccqpyGtJ.s 			page 26


 414              		.loc 15 174 19 discriminator 4 view .LVU70
 415 0028 A842     		cmp	r0, r5
 416 002a 05D8     		bhi	.L14
 174:../../libDaisy//src/hid/disp/display.h ****     }
 417              		.loc 15 174 46 discriminator 1 view .LVU71
 418 002c 2368     		ldr	r3, [r4]
 174:../../libDaisy//src/hid/disp/display.h ****     }
 419              		.loc 15 174 45 discriminator 1 view .LVU72
 420 002e 2046     		mov	r0, r4
 421 0030 9B68     		ldr	r3, [r3, #8]
 422 0032 9847     		blx	r3
 423              	.LVL19:
 174:../../libDaisy//src/hid/disp/display.h ****     }
 424              		.loc 15 174 19 discriminator 1 view .LVU73
 425 0034 0138     		subs	r0, r0, #1
 426 0036 85B2     		uxth	r5, r0
 427              	.L14:
 174:../../libDaisy//src/hid/disp/display.h ****     }
 428              		.loc 15 174 19 discriminator 4 view .LVU74
 429 0038 E580     		strh	r5, [r4, #6]	@ movhi
 175:../../libDaisy//src/hid/disp/display.h **** 
 430              		.loc 15 175 5 discriminator 4 view .LVU75
 431 003a 70BD     		pop	{r4, r5, r6, pc}
 175:../../libDaisy//src/hid/disp/display.h **** 
 432              		.loc 15 175 5 discriminator 4 view .LVU76
 433              		.cfi_endproc
 434              	.LFE1775:
 436              		.section	.text._ZN5daisy19SSD130xI2CTransport11SendCommandEh,"axG",%progbits,_ZN5daisy19SSD130xI2C
 437              		.align	1
 438              		.weak	_ZN5daisy19SSD130xI2CTransport11SendCommandEh
 439              		.syntax unified
 440              		.thumb
 441              		.thumb_func
 443              	_ZN5daisy19SSD130xI2CTransport11SendCommandEh:
 444              	.LVL20:
 445              	.LFB4800:
 446              		.file 16 "../../libDaisy//src/dev/oled_ssd130x.h"
   1:../../libDaisy//src/dev/oled_ssd130x.h **** #pragma once
   2:../../libDaisy//src/dev/oled_ssd130x.h **** #ifndef SA_OLED_SSD130X_H
   3:../../libDaisy//src/dev/oled_ssd130x.h **** #define SA_OLED_SSD130X_H /**< & */
   4:../../libDaisy//src/dev/oled_ssd130x.h **** 
   5:../../libDaisy//src/dev/oled_ssd130x.h **** #include "per/i2c.h"
   6:../../libDaisy//src/dev/oled_ssd130x.h **** #include "per/spi.h"
   7:../../libDaisy//src/dev/oled_ssd130x.h **** #include "per/gpio.h"
   8:../../libDaisy//src/dev/oled_ssd130x.h **** #include "sys/system.h"
   9:../../libDaisy//src/dev/oled_ssd130x.h **** 
  10:../../libDaisy//src/dev/oled_ssd130x.h **** namespace daisy
  11:../../libDaisy//src/dev/oled_ssd130x.h **** {
  12:../../libDaisy//src/dev/oled_ssd130x.h **** /**
  13:../../libDaisy//src/dev/oled_ssd130x.h ****  * I2C Transport for SSD1306 / SSD1309 OLED display devices
  14:../../libDaisy//src/dev/oled_ssd130x.h ****  */
  15:../../libDaisy//src/dev/oled_ssd130x.h **** class SSD130xI2CTransport
  16:../../libDaisy//src/dev/oled_ssd130x.h **** {
  17:../../libDaisy//src/dev/oled_ssd130x.h ****   public:
  18:../../libDaisy//src/dev/oled_ssd130x.h ****     struct Config
  19:../../libDaisy//src/dev/oled_ssd130x.h ****     {
  20:../../libDaisy//src/dev/oled_ssd130x.h ****         Config()
ARM GAS  /var/folders/z5/_7t90xy14zq1swjhncg0p5z00000gn/T//ccqpyGtJ.s 			page 27


  21:../../libDaisy//src/dev/oled_ssd130x.h ****         {
  22:../../libDaisy//src/dev/oled_ssd130x.h ****             // Intialize using defaults
  23:../../libDaisy//src/dev/oled_ssd130x.h ****             Defaults();
  24:../../libDaisy//src/dev/oled_ssd130x.h ****         }
  25:../../libDaisy//src/dev/oled_ssd130x.h ****         I2CHandle::Config i2c_config;
  26:../../libDaisy//src/dev/oled_ssd130x.h ****         uint8_t           i2c_address;
  27:../../libDaisy//src/dev/oled_ssd130x.h ****         void              Defaults()
  28:../../libDaisy//src/dev/oled_ssd130x.h ****         {
  29:../../libDaisy//src/dev/oled_ssd130x.h ****             i2c_config.periph         = I2CHandle::Config::Peripheral::I2C_1;
  30:../../libDaisy//src/dev/oled_ssd130x.h ****             i2c_config.speed          = I2CHandle::Config::Speed::I2C_1MHZ;
  31:../../libDaisy//src/dev/oled_ssd130x.h ****             i2c_config.mode           = I2CHandle::Config::Mode::I2C_MASTER;
  32:../../libDaisy//src/dev/oled_ssd130x.h ****             i2c_config.pin_config.scl = {DSY_GPIOB, 8};
  33:../../libDaisy//src/dev/oled_ssd130x.h ****             i2c_config.pin_config.sda = {DSY_GPIOB, 9};
  34:../../libDaisy//src/dev/oled_ssd130x.h ****             i2c_address               = 0x3C;
  35:../../libDaisy//src/dev/oled_ssd130x.h ****         }
  36:../../libDaisy//src/dev/oled_ssd130x.h ****     };
  37:../../libDaisy//src/dev/oled_ssd130x.h ****     void Init(const Config& config)
  38:../../libDaisy//src/dev/oled_ssd130x.h ****     {
  39:../../libDaisy//src/dev/oled_ssd130x.h ****         i2c_address_ = config.i2c_address;
  40:../../libDaisy//src/dev/oled_ssd130x.h ****         i2c_.Init(config.i2c_config);
  41:../../libDaisy//src/dev/oled_ssd130x.h ****     };
  42:../../libDaisy//src/dev/oled_ssd130x.h ****     void SendCommand(uint8_t cmd)
 447              		.loc 16 42 10 is_stmt 1 view -0
 448              		.cfi_startproc
 449              		@ args = 0, pretend = 0, frame = 8
 450              		@ frame_needed = 0, uses_anonymous_args = 0
  43:../../libDaisy//src/dev/oled_ssd130x.h ****     {
  44:../../libDaisy//src/dev/oled_ssd130x.h ****         uint8_t buf[2] = {0X00, cmd};
 451              		.loc 16 44 9 view .LVU78
  42:../../libDaisy//src/dev/oled_ssd130x.h ****     {
 452              		.loc 16 42 10 is_stmt 0 view .LVU79
 453 0000 1FB5     		push	{r0, r1, r2, r3, r4, lr}
 454              		.cfi_def_cfa_offset 24
 455              		.cfi_offset 14, -4
 456              		.loc 16 44 17 view .LVU80
 457 0002 0023     		movs	r3, #0
 458              		.loc 16 44 36 view .LVU81
 459 0004 8DF80D10 		strb	r1, [sp, #13]
  45:../../libDaisy//src/dev/oled_ssd130x.h ****         i2c_.TransmitBlocking(i2c_address_, buf, 2, 1000);
 460              		.loc 16 45 9 is_stmt 1 view .LVU82
 461              		.loc 16 45 30 is_stmt 0 view .LVU83
 462 0008 03AA     		add	r2, sp, #12
 463 000a 0179     		ldrb	r1, [r0, #4]	@ zero_extendqisi2
 464              	.LVL21:
  44:../../libDaisy//src/dev/oled_ssd130x.h ****         i2c_.TransmitBlocking(i2c_address_, buf, 2, 1000);
 465              		.loc 16 44 17 view .LVU84
 466 000c 8DF80C30 		strb	r3, [sp, #12]
 467              		.loc 16 45 30 view .LVU85
 468 0010 4FF47A73 		mov	r3, #1000
 469 0014 0093     		str	r3, [sp]
 470 0016 0223     		movs	r3, #2
 471 0018 FFF7FEFF 		bl	_ZN5daisy9I2CHandle16TransmitBlockingEtPhtm
 472              	.LVL22:
  46:../../libDaisy//src/dev/oled_ssd130x.h ****     };
 473              		.loc 16 46 5 view .LVU86
 474 001c 05B0     		add	sp, sp, #20
 475              		.cfi_def_cfa_offset 4
ARM GAS  /var/folders/z5/_7t90xy14zq1swjhncg0p5z00000gn/T//ccqpyGtJ.s 			page 28


 476              		@ sp needed
 477 001e 5DF804FB 		ldr	pc, [sp], #4
 478              		.cfi_endproc
 479              	.LFE4800:
 481              		.section	.text._Z8endsWithPKcS0_,"ax",%progbits
 482              		.align	1
 483              		.global	_Z8endsWithPKcS0_
 484              		.syntax unified
 485              		.thumb
 486              		.thumb_func
 488              	_Z8endsWithPKcS0_:
 489              	.LVL23:
 490              	.LFB4922:
 491              		.file 17 "RM-38D.cpp"
   1:RM-38D.cpp    **** #include "daisy_seed.h"
   2:RM-38D.cpp    **** #include "daisysp.h"
   3:RM-38D.cpp    **** 
   4:RM-38D.cpp    **** #include <string.h>
   5:RM-38D.cpp    **** #include "sys/fatfs.h"
   6:RM-38D.cpp    **** 
   7:RM-38D.cpp    **** #include "dev/oled_ssd130x.h"
   8:RM-38D.cpp    **** 
   9:RM-38D.cpp    **** #include "SampleVoice.h"
  10:RM-38D.cpp    **** #include "StepLEDs.h"
  11:RM-38D.cpp    **** #include "InputDriver.h"
  12:RM-38D.cpp    **** #include "Sequencer.h"
  13:RM-38D.cpp    **** 
  14:RM-38D.cpp    **** /** 
  15:RM-38D.cpp    ****     @author Hayden Barry
  16:RM-38D.cpp    ****     @date Febuary 2024
  17:RM-38D.cpp    **** */
  18:RM-38D.cpp    **** 
  19:RM-38D.cpp    **** using namespace daisy::seed;
  20:RM-38D.cpp    **** 
  21:RM-38D.cpp    **** TimerHandle tim5_handle;
  22:RM-38D.cpp    **** DaisySeed hw;
  23:RM-38D.cpp    **** 
  24:RM-38D.cpp    **** #define NUM_VOICES 16
  25:RM-38D.cpp    **** #define MAX_SAMPLE_LENGTH 67108864/NUM_VOICES/sizeof(int16_t)
  26:RM-38D.cpp    **** int16_t DSY_SDRAM_BSS sampleBuffer[NUM_VOICES][MAX_SAMPLE_LENGTH];
  27:RM-38D.cpp    **** 
  28:RM-38D.cpp    **** SampleVoice sampleVoices[NUM_VOICES];
  29:RM-38D.cpp    **** Sequencer<16, 16, 16> sequencer;
  30:RM-38D.cpp    **** 
  31:RM-38D.cpp    **** int current_step = 0;
  32:RM-38D.cpp    **** daisysp::Metro metro; 
  33:RM-38D.cpp    **** 
  34:RM-38D.cpp    **** class ControlChangeMsg {
  35:RM-38D.cpp    **** public:
  36:RM-38D.cpp    **** 	uint8_t id;
  37:RM-38D.cpp    **** 	uint8_t type;
  38:RM-38D.cpp    **** 	uint8_t data[8];
  39:RM-38D.cpp    **** 	uint8_t data_size;
  40:RM-38D.cpp    **** 	enum ID {GLOBAL, GLOBAL_TEMPO, PLAY_PAUSE, STOP_START,SAMPLE_VOICE, VOICE_SEQUENCE, VOICE_PAN, VOI
  41:RM-38D.cpp    **** 	enum TYPE {SET, GET, INCREMENT, DECREMENT, TOGGLE};
  42:RM-38D.cpp    **** };
  43:RM-38D.cpp    **** 
ARM GAS  /var/folders/z5/_7t90xy14zq1swjhncg0p5z00000gn/T//ccqpyGtJ.s 			page 29


  44:RM-38D.cpp    **** RingBuffer<ControlChangeMsg, 32> controlChangeBuffer;
  45:RM-38D.cpp    **** RingBuffer<ControlChangeMsg, 32> controlChangedBuffer;
  46:RM-38D.cpp    **** float GetVolume();
  47:RM-38D.cpp    **** void InitVolumeADC();
  48:RM-38D.cpp    **** 
  49:RM-38D.cpp    **** 
  50:RM-38D.cpp    **** void AudioCallback(AudioHandle::InputBuffer in, AudioHandle::OutputBuffer out, size_t size);
  51:RM-38D.cpp    **** 
  52:RM-38D.cpp    **** void initUI();
  53:RM-38D.cpp    **** 
  54:RM-38D.cpp    **** InputDriver inputDriver;
  55:RM-38D.cpp    **** StepLEDs stepLEDs;
  56:RM-38D.cpp    **** const int width = 128;
  57:RM-38D.cpp    **** const int height = 64;
  58:RM-38D.cpp    **** 
  59:RM-38D.cpp    **** 
  60:RM-38D.cpp    **** 
  61:RM-38D.cpp    **** enum MODE {STEP, SEQUENCER, GLOBAL};
  62:RM-38D.cpp    **** OledDisplay<SSD130xI2c128x64Driver> display;
  63:RM-38D.cpp    **** StepLEDs leds;
  64:RM-38D.cpp    **** 
  65:RM-38D.cpp    **** void GetSampleVoice(uint8_t voice) {
  66:RM-38D.cpp    **** 	ControlChangeMsg cc;
  67:RM-38D.cpp    **** 	cc.id = ControlChangeMsg::ID::SAMPLE_VOICE;
  68:RM-38D.cpp    **** 	cc.type = ControlChangeMsg::TYPE::GET;
  69:RM-38D.cpp    **** 	cc.data[0] = voice;		
  70:RM-38D.cpp    **** 	controlChangeBuffer.Write(cc);
  71:RM-38D.cpp    **** }
  72:RM-38D.cpp    **** 
  73:RM-38D.cpp    **** void GetSequence(uint8_t voice, uint8_t sequence) {
  74:RM-38D.cpp    **** 	ControlChangeMsg cc;
  75:RM-38D.cpp    **** 	cc.id = ControlChangeMsg::ID::VOICE_SEQUENCE;
  76:RM-38D.cpp    **** 	cc.type = ControlChangeMsg::TYPE::GET;
  77:RM-38D.cpp    **** 	cc.data[0] = voice;	
  78:RM-38D.cpp    **** 	cc.data[1] = sequence;		
  79:RM-38D.cpp    **** 	controlChangeBuffer.Write(cc);
  80:RM-38D.cpp    **** }
  81:RM-38D.cpp    **** 
  82:RM-38D.cpp    **** 
  83:RM-38D.cpp    **** void GetGlobalParameters() {
  84:RM-38D.cpp    **** 	ControlChangeMsg cc;
  85:RM-38D.cpp    **** 	cc.id = ControlChangeMsg::ID::GLOBAL;
  86:RM-38D.cpp    **** 	cc.type = ControlChangeMsg::TYPE::GET;	
  87:RM-38D.cpp    **** 	controlChangeBuffer.Write(cc);
  88:RM-38D.cpp    **** }
  89:RM-38D.cpp    **** 
  90:RM-38D.cpp    **** void IncrementControl(uint8_t voice, uint8_t control,int8_t inc) {
  91:RM-38D.cpp    **** 	ControlChangeMsg cc;
  92:RM-38D.cpp    **** 	cc.id = control;
  93:RM-38D.cpp    **** 	if (inc < 0) cc.type = ControlChangeMsg::TYPE::DECREMENT;
  94:RM-38D.cpp    **** 	else if (inc > 0) cc.type = ControlChangeMsg::TYPE::INCREMENT;
  95:RM-38D.cpp    **** 	else return;
  96:RM-38D.cpp    **** 	cc.data[0] = voice;		
  97:RM-38D.cpp    **** 
  98:RM-38D.cpp    **** 	controlChangeBuffer.Write(cc);	
  99:RM-38D.cpp    **** }
 100:RM-38D.cpp    **** 
ARM GAS  /var/folders/z5/_7t90xy14zq1swjhncg0p5z00000gn/T//ccqpyGtJ.s 			page 30


 101:RM-38D.cpp    **** void IncrementControl(uint8_t control,int8_t inc) {
 102:RM-38D.cpp    **** 	ControlChangeMsg cc;
 103:RM-38D.cpp    **** 	cc.id = control;
 104:RM-38D.cpp    **** 	if (inc < 0) cc.type = ControlChangeMsg::TYPE::DECREMENT;
 105:RM-38D.cpp    **** 	else if (inc > 0) cc.type = ControlChangeMsg::TYPE::INCREMENT;
 106:RM-38D.cpp    **** 	else return;
 107:RM-38D.cpp    **** 
 108:RM-38D.cpp    **** 	controlChangeBuffer.Write(cc);	
 109:RM-38D.cpp    **** }
 110:RM-38D.cpp    **** 
 111:RM-38D.cpp    **** void ToggleControl(uint8_t control) {
 112:RM-38D.cpp    **** 	ControlChangeMsg cc;
 113:RM-38D.cpp    **** 	cc.id = control;
 114:RM-38D.cpp    **** 	cc.type = ControlChangeMsg::TYPE::TOGGLE;
 115:RM-38D.cpp    **** 	
 116:RM-38D.cpp    **** 	controlChangeBuffer.Write(cc);		
 117:RM-38D.cpp    **** }
 118:RM-38D.cpp    **** 
 119:RM-38D.cpp    **** void ToggleSequenceStep(uint8_t voice, uint8_t sequence, uint8_t step) {
 120:RM-38D.cpp    **** 	ControlChangeMsg cc;
 121:RM-38D.cpp    **** 	cc.id = ControlChangeMsg::ID::VOICE_SEQUENCE;
 122:RM-38D.cpp    **** 	cc.type = ControlChangeMsg::TYPE::TOGGLE;
 123:RM-38D.cpp    **** 	cc.data[0] = voice;
 124:RM-38D.cpp    **** 	cc.data[1] = sequence;
 125:RM-38D.cpp    **** 	cc.data[2] = step;
 126:RM-38D.cpp    **** 	controlChangeBuffer.Write(cc);		
 127:RM-38D.cpp    **** }
 128:RM-38D.cpp    **** 
 129:RM-38D.cpp    **** struct SampleVoiceParameters {
 130:RM-38D.cpp    **** 	int8_t pan = 0;
 131:RM-38D.cpp    **** 	float gain = 0;
 132:RM-38D.cpp    **** };
 133:RM-38D.cpp    **** struct GlobalParameters {
 134:RM-38D.cpp    **** 	float tempo = 0;
 135:RM-38D.cpp    **** };
 136:RM-38D.cpp    **** struct SequenceParameters {
 137:RM-38D.cpp    **** 	uint16_t ledState = 0;
 138:RM-38D.cpp    **** };
 139:RM-38D.cpp    **** 
 140:RM-38D.cpp    **** 
 141:RM-38D.cpp    **** SdmmcHandler   sd;
 142:RM-38D.cpp    **** FatFSInterface fsi;
 143:RM-38D.cpp    **** DIR dir;
 144:RM-38D.cpp    **** DIR i_dir;
 145:RM-38D.cpp    **** FILINFO fil;
 146:RM-38D.cpp    **** FILINFO p_fil;
 147:RM-38D.cpp    **** FIL fp;
 148:RM-38D.cpp    **** int num_files = 0;
 149:RM-38D.cpp    **** char fileNames[16][FILENAME_MAX];
 150:RM-38D.cpp    **** 
 151:RM-38D.cpp    **** bool endsWith(const char *str, const char *suffix) {
 492              		.loc 17 151 52 is_stmt 1 view -0
 493              		.cfi_startproc
 494              		@ args = 0, pretend = 0, frame = 0
 495              		@ frame_needed = 0, uses_anonymous_args = 0
 152:RM-38D.cpp    ****   size_t str_len = strlen(str);
 496              		.loc 17 152 3 view .LVU88
ARM GAS  /var/folders/z5/_7t90xy14zq1swjhncg0p5z00000gn/T//ccqpyGtJ.s 			page 31


 151:RM-38D.cpp    ****   size_t str_len = strlen(str);
 497              		.loc 17 151 52 is_stmt 0 view .LVU89
 498 0000 70B5     		push	{r4, r5, r6, lr}
 499              		.cfi_def_cfa_offset 16
 500              		.cfi_offset 4, -16
 501              		.cfi_offset 5, -12
 502              		.cfi_offset 6, -8
 503              		.cfi_offset 14, -4
 151:RM-38D.cpp    ****   size_t str_len = strlen(str);
 504              		.loc 17 151 52 view .LVU90
 505 0002 0D46     		mov	r5, r1
 506 0004 0646     		mov	r6, r0
 507              		.loc 17 152 26 view .LVU91
 508 0006 FFF7FEFF 		bl	strlen
 509              	.LVL24:
 510              		.loc 17 152 26 view .LVU92
 511 000a 0446     		mov	r4, r0
 512              	.LVL25:
 153:RM-38D.cpp    ****   size_t suffix_len = strlen(suffix);
 513              		.loc 17 153 3 is_stmt 1 view .LVU93
 514              		.loc 17 153 29 is_stmt 0 view .LVU94
 515 000c 2846     		mov	r0, r5
 516              	.LVL26:
 517              		.loc 17 153 29 view .LVU95
 518 000e FFF7FEFF 		bl	strlen
 519              	.LVL27:
 154:RM-38D.cpp    **** 
 155:RM-38D.cpp    ****   return (str_len >= suffix_len) && (!memcmp(str + str_len - suffix_len, suffix, suffix_len));
 520              		.loc 17 155 34 view .LVU96
 521 0012 8442     		cmp	r4, r0
 153:RM-38D.cpp    ****   size_t suffix_len = strlen(suffix);
 522              		.loc 17 153 29 view .LVU97
 523 0014 0246     		mov	r2, r0
 524              	.LVL28:
 525              		.loc 17 155 3 is_stmt 1 view .LVU98
 526              		.loc 17 155 34 is_stmt 0 view .LVU99
 527 0016 08D3     		bcc	.L18
 528              		.loc 17 155 60 discriminator 1 view .LVU100
 529 0018 241A     		subs	r4, r4, r0
 530              	.LVL29:
 531              		.loc 17 155 45 discriminator 1 view .LVU101
 532 001a 2946     		mov	r1, r5
 533 001c 3019     		adds	r0, r6, r4
 534              	.LVL30:
 535              		.loc 17 155 45 discriminator 1 view .LVU102
 536 001e FFF7FEFF 		bl	memcmp
 537              	.LVL31:
 538              		.loc 17 155 34 discriminator 1 view .LVU103
 539 0022 B0FA80F0 		clz	r0, r0
 540 0026 4009     		lsrs	r0, r0, #5
 541              	.L17:
 156:RM-38D.cpp    **** }
 542              		.loc 17 156 1 discriminator 6 view .LVU104
 543 0028 70BD     		pop	{r4, r5, r6, pc}
 544              	.LVL32:
 545              	.L18:
 155:RM-38D.cpp    **** }
ARM GAS  /var/folders/z5/_7t90xy14zq1swjhncg0p5z00000gn/T//ccqpyGtJ.s 			page 32


 546              		.loc 17 155 34 view .LVU105
 547 002a 0020     		movs	r0, #0
 548              	.LVL33:
 155:RM-38D.cpp    **** }
 549              		.loc 17 155 34 view .LVU106
 550 002c FCE7     		b	.L17
 551              		.cfi_endproc
 552              	.LFE4922:
 554              		.section	.text._Z13InitVolumeADCv,"ax",%progbits
 555              		.align	1
 556              		.global	_Z13InitVolumeADCv
 557              		.syntax unified
 558              		.thumb
 559              		.thumb_func
 561              	_Z13InitVolumeADCv:
 562              	.LFB4937:
 157:RM-38D.cpp    **** 
 158:RM-38D.cpp    **** int main(void)
 159:RM-38D.cpp    **** {
 160:RM-38D.cpp    **** 	hw.Init();
 161:RM-38D.cpp    **** 
 162:RM-38D.cpp    **** 	InitVolumeADC();
 163:RM-38D.cpp    **** 	
 164:RM-38D.cpp    **** 	SdmmcHandler::Config sd_cfg;
 165:RM-38D.cpp    ****     sd_cfg.Defaults();
 166:RM-38D.cpp    ****     sd_cfg.width = daisy::SdmmcHandler::BusWidth::BITS_4;
 167:RM-38D.cpp    ****     sd_cfg.speed = daisy::SdmmcHandler::Speed::FAST;
 168:RM-38D.cpp    ****     sd.Init(sd_cfg);
 169:RM-38D.cpp    **** 	fsi.Init(FatFSInterface::Config::MEDIA_SD);
 170:RM-38D.cpp    **** 	f_mount(&fsi.GetSDFileSystem(), "/", 1);
 171:RM-38D.cpp    **** 	f_opendir(&dir, fsi.GetSDPath());
 172:RM-38D.cpp    **** 
 173:RM-38D.cpp    **** 	for (unsigned int i=0; i<NUM_VOICES; i++) {
 174:RM-38D.cpp    **** 		sampleVoices[i].Init(sampleBuffer[i], MAX_SAMPLE_LENGTH);
 175:RM-38D.cpp    **** 	}
 176:RM-38D.cpp    **** 
 177:RM-38D.cpp    **** 	do {
 178:RM-38D.cpp    **** 		f_readdir(&dir, &fil);
 179:RM-38D.cpp    **** 
 180:RM-38D.cpp    **** 		if (fil.fname[0] == '\0') break;
 181:RM-38D.cpp    **** 		if (endsWith(fil.fname, ".wav") && !(fil.fattrib & (AM_HID|AM_DIR|AM_SYS)) && fil.fname[0] != '.'
 182:RM-38D.cpp    **** 			sampleVoices[num_files].SetSample(fil.fname);
 183:RM-38D.cpp    **** 			strcpy(fileNames[num_files++], fil.fname);
 184:RM-38D.cpp    **** 		} 
 185:RM-38D.cpp    **** 		
 186:RM-38D.cpp    **** 	} while (num_files < 16);
 187:RM-38D.cpp    **** 
 188:RM-38D.cpp    **** 	f_closedir(&dir);
 189:RM-38D.cpp    **** 
 190:RM-38D.cpp    **** 	hw.SetAudioBlockSize(4); // number of samples handled per callback
 191:RM-38D.cpp    **** 	hw.SetAudioSampleRate(SaiHandle::Config::SampleRate::SAI_48KHZ);
 192:RM-38D.cpp    **** 	hw.StartAudio(AudioCallback);
 193:RM-38D.cpp    **** 
 194:RM-38D.cpp    **** 	initUI();
 195:RM-38D.cpp    **** 	inputDriver.Init();
 196:RM-38D.cpp    **** 	stepLEDs.Init();
 197:RM-38D.cpp    **** 
ARM GAS  /var/folders/z5/_7t90xy14zq1swjhncg0p5z00000gn/T//ccqpyGtJ.s 			page 33


 198:RM-38D.cpp    **** 	sequencer.Init(hw.AudioSampleRate());
 199:RM-38D.cpp    **** 
 200:RM-38D.cpp    **** 
 201:RM-38D.cpp    **** 
 202:RM-38D.cpp    **** 	int currentPage = STEP;
 203:RM-38D.cpp    **** 	uint8_t voice = 0;
 204:RM-38D.cpp    **** 	uint8_t sequence = 0;
 205:RM-38D.cpp    **** 	
 206:RM-38D.cpp    **** 
 207:RM-38D.cpp    **** 	SampleVoiceParameters sampleVoice;
 208:RM-38D.cpp    **** 	GlobalParameters globalParameters;
 209:RM-38D.cpp    **** 	SequenceParameters sequenceParamters;
 210:RM-38D.cpp    **** 	
 211:RM-38D.cpp    **** 	bool pageChanged = true;
 212:RM-38D.cpp    **** 	GetSampleVoice(voice);
 213:RM-38D.cpp    **** 	GetSequence(voice, sequence);
 214:RM-38D.cpp    **** 
 215:RM-38D.cpp    **** 
 216:RM-38D.cpp    **** 	while(1) {
 217:RM-38D.cpp    **** 		inputDriver.Update();
 218:RM-38D.cpp    **** 		Input input = inputDriver.Pop();
 219:RM-38D.cpp    **** 
 220:RM-38D.cpp    **** 		if (currentPage == STEP) {
 221:RM-38D.cpp    **** 			if (input.isStep() && input.down()) {
 222:RM-38D.cpp    **** 				if (input.shift()) {
 223:RM-38D.cpp    **** 					GetSampleVoice(voice = input.index);
 224:RM-38D.cpp    **** 					GetSequence(voice, sequence);
 225:RM-38D.cpp    **** 				} else {
 226:RM-38D.cpp    **** 					ToggleSequenceStep(voice, sequence, input.index);
 227:RM-38D.cpp    **** 				}
 228:RM-38D.cpp    **** 
 229:RM-38D.cpp    **** 			} else if (input.IsEncoder()) {
 230:RM-38D.cpp    **** 				if (input.index == 0) {
 231:RM-38D.cpp    **** 					if (input.left()) IncrementControl(voice, ControlChangeMsg::ID::VOICE_GAIN, -1);
 232:RM-38D.cpp    **** 					else if (input.right()) IncrementControl(voice, ControlChangeMsg::ID::VOICE_GAIN, 1);
 233:RM-38D.cpp    **** 					else if (input.down() && input.shift()) {
 234:RM-38D.cpp    **** 						GetGlobalParameters();
 235:RM-38D.cpp    **** 						currentPage = GLOBAL;
 236:RM-38D.cpp    **** 					}
 237:RM-38D.cpp    **** 
 238:RM-38D.cpp    **** 				} else if (input.index == 1) {
 239:RM-38D.cpp    **** 					if (input.left()) IncrementControl(voice, ControlChangeMsg::ID::VOICE_PAN, -1);
 240:RM-38D.cpp    **** 					else if (input.right()) IncrementControl(voice, ControlChangeMsg::ID::VOICE_PAN, 1);						
 241:RM-38D.cpp    **** 				}
 242:RM-38D.cpp    **** 			} else if (input.isPlay() && input.down()) {
 243:RM-38D.cpp    **** 				ToggleControl(ControlChangeMsg::ID::PLAY_PAUSE);
 244:RM-38D.cpp    **** 			} else if (input.isStop() && input.down()) {
 245:RM-38D.cpp    **** 				ToggleControl(ControlChangeMsg::ID::STOP_START);
 246:RM-38D.cpp    **** 			}	
 247:RM-38D.cpp    **** 
 248:RM-38D.cpp    **** 
 249:RM-38D.cpp    **** 		} else if (currentPage == GLOBAL) {
 250:RM-38D.cpp    **** 			if (input.IsEncoder()) {
 251:RM-38D.cpp    **** 				if (input.index == 0) {
 252:RM-38D.cpp    **** 					if (input.left()) IncrementControl(ControlChangeMsg::ID::GLOBAL_TEMPO, -1);
 253:RM-38D.cpp    **** 					else if (input.right()) IncrementControl(ControlChangeMsg::ID::GLOBAL_TEMPO, 1);
 254:RM-38D.cpp    **** 					else if (input.down() && input.shift()) {
ARM GAS  /var/folders/z5/_7t90xy14zq1swjhncg0p5z00000gn/T//ccqpyGtJ.s 			page 34


 255:RM-38D.cpp    **** 						GetSampleVoice(voice);
 256:RM-38D.cpp    **** 						GetSequence(voice, sequence);
 257:RM-38D.cpp    **** 						currentPage = STEP;
 258:RM-38D.cpp    **** 					}
 259:RM-38D.cpp    **** 				}
 260:RM-38D.cpp    **** 			}
 261:RM-38D.cpp    **** 		}
 262:RM-38D.cpp    **** 
 263:RM-38D.cpp    **** 		// got control change from Audio Interupt
 264:RM-38D.cpp    **** 		if (controlChangedBuffer.readable()) {
 265:RM-38D.cpp    **** 			ControlChangeMsg cc = controlChangedBuffer.ImmediateRead();
 266:RM-38D.cpp    **** 			pageChanged = true;
 267:RM-38D.cpp    **** 			if (cc.id == ControlChangeMsg::ID::SAMPLE_VOICE && cc.type == ControlChangeMsg::TYPE::GET) {
 268:RM-38D.cpp    **** 				memcpy(&sampleVoice, cc.data, sizeof(sampleVoice));
 269:RM-38D.cpp    **** 			} else if (cc.id == ControlChangeMsg::ID::GLOBAL && cc.type == ControlChangeMsg::TYPE::GET) {
 270:RM-38D.cpp    **** 				memcpy(&globalParameters, cc.data, sizeof(globalParameters));
 271:RM-38D.cpp    **** 			}  else if (cc.id == ControlChangeMsg::ID::VOICE_SEQUENCE && cc.type == ControlChangeMsg::TYPE::
 272:RM-38D.cpp    **** 				memcpy(&sequenceParamters, cc.data, sizeof(sequenceParamters));
 273:RM-38D.cpp    **** 			}
 274:RM-38D.cpp    **** 		}
 275:RM-38D.cpp    **** 
 276:RM-38D.cpp    **** 		if (pageChanged) {
 277:RM-38D.cpp    **** 			pageChanged = false;
 278:RM-38D.cpp    **** 			if (currentPage == STEP) {
 279:RM-38D.cpp    **** 				char str[64];
 280:RM-38D.cpp    **** 				str[63] = '\0';
 281:RM-38D.cpp    **** 				display.Fill(false);
 282:RM-38D.cpp    **** 				sprintf(str, "V%2d      P%2d", voice, sequence);
 283:RM-38D.cpp    **** 
 284:RM-38D.cpp    **** 				display.SetCursor(0,0);
 285:RM-38D.cpp    **** 				display.WriteString(str, Font_7x10, true);
 286:RM-38D.cpp    **** 				display.SetCursor(0,height/3);
 287:RM-38D.cpp    **** 
 288:RM-38D.cpp    **** 				// get rid of ".wav"
 289:RM-38D.cpp    **** 				for (int i=0; i<63; i++) {
 290:RM-38D.cpp    **** 					if (fileNames[voice][i] == '\0' || fileNames[voice][i] == '.') {
 291:RM-38D.cpp    **** 						str[i] = '\0';
 292:RM-38D.cpp    **** 						break;
 293:RM-38D.cpp    **** 					} else {
 294:RM-38D.cpp    **** 						str[i] = fileNames[voice][i];
 295:RM-38D.cpp    **** 					}
 296:RM-38D.cpp    **** 				}
 297:RM-38D.cpp    **** 
 298:RM-38D.cpp    **** 				display.WriteString(str, Font_7x10, true);
 299:RM-38D.cpp    **** 				
 300:RM-38D.cpp    **** 				char pan_char = ' ';
 301:RM-38D.cpp    **** 				if (sampleVoice.pan == 0) pan_char = 'C';
 302:RM-38D.cpp    **** 				else if (sampleVoice.pan < 0)  pan_char = 'L';
 303:RM-38D.cpp    **** 				else if (sampleVoice.pan > 0)  pan_char = 'R';
 304:RM-38D.cpp    **** 				int int_part = sampleVoice.gain;                  // Get the integer (678).
 305:RM-38D.cpp    **** 				float temp_frac = sampleVoice.gain - int_part;      // Get fraction (0.0123).
 306:RM-38D.cpp    **** 				int frac = trunc(temp_frac * 100);  // Turn into integer (123).
 307:RM-38D.cpp    **** 				sprintf(str, "GAIN %01d.%02d  PAN %2d%c ", int_part, frac, (sampleVoice.pan < 0) ? sampleVoice.
 308:RM-38D.cpp    **** 				
 309:RM-38D.cpp    **** 				display.SetCursor(0,height*2/3);
 310:RM-38D.cpp    **** 				display.WriteString(str, Font_7x10, true);
 311:RM-38D.cpp    **** 				display.Update();
ARM GAS  /var/folders/z5/_7t90xy14zq1swjhncg0p5z00000gn/T//ccqpyGtJ.s 			page 35


 312:RM-38D.cpp    **** 				leds.Set(sequenceParamters.ledState);
 313:RM-38D.cpp    **** 				leds.Write();
 314:RM-38D.cpp    **** 			} else if (currentPage == GLOBAL) {
 315:RM-38D.cpp    **** 				display.Fill(false);
 316:RM-38D.cpp    **** 				display.SetCursor(0,(height/2)-9);
 317:RM-38D.cpp    **** 				char str[10];
 318:RM-38D.cpp    **** 				sprintf(str, "TEMPO %3d", (int)globalParameters.tempo);
 319:RM-38D.cpp    **** 				
 320:RM-38D.cpp    **** 				display.WriteString(str, Font_11x18 , true);
 321:RM-38D.cpp    **** 				display.Update();
 322:RM-38D.cpp    **** 				leds.Set(0);
 323:RM-38D.cpp    **** 				leds.Write();
 324:RM-38D.cpp    **** 			}	
 325:RM-38D.cpp    **** 		}
 326:RM-38D.cpp    **** 
 327:RM-38D.cpp    **** 	}
 328:RM-38D.cpp    **** }
 329:RM-38D.cpp    **** 
 330:RM-38D.cpp    **** void SendSampleVoice(float gain, int8_t pan) {
 331:RM-38D.cpp    **** 	SampleVoiceParameters voice =  {.pan = pan, .gain = gain};
 332:RM-38D.cpp    **** 	ControlChangeMsg cc;
 333:RM-38D.cpp    **** 	cc.id = ControlChangeMsg::ID::SAMPLE_VOICE;
 334:RM-38D.cpp    **** 	cc.type = ControlChangeMsg::TYPE::GET;
 335:RM-38D.cpp    **** 	memcpy(cc.data, &voice, sizeof(voice));
 336:RM-38D.cpp    **** 	controlChangedBuffer.Write(cc);	
 337:RM-38D.cpp    **** }
 338:RM-38D.cpp    **** 
 339:RM-38D.cpp    **** void SendSequenceParameters(SequenceParameters sequence) {
 340:RM-38D.cpp    **** 	ControlChangeMsg cc;
 341:RM-38D.cpp    **** 	cc.id = ControlChangeMsg::ID::VOICE_SEQUENCE;
 342:RM-38D.cpp    **** 	cc.type = ControlChangeMsg::TYPE::GET;
 343:RM-38D.cpp    **** 	memcpy(cc.data, &sequence, sizeof(sequence));
 344:RM-38D.cpp    **** 	controlChangedBuffer.Write(cc);	
 345:RM-38D.cpp    **** }
 346:RM-38D.cpp    **** 
 347:RM-38D.cpp    **** void SendGlobalParameters(GlobalParameters global) {
 348:RM-38D.cpp    **** 	ControlChangeMsg cc;
 349:RM-38D.cpp    **** 	cc.id = ControlChangeMsg::ID::GLOBAL;
 350:RM-38D.cpp    **** 	cc.type = ControlChangeMsg::TYPE::GET;
 351:RM-38D.cpp    **** 	memcpy(cc.data, &global, sizeof(global));
 352:RM-38D.cpp    **** 	controlChangedBuffer.Write(cc);	
 353:RM-38D.cpp    **** }
 354:RM-38D.cpp    **** 
 355:RM-38D.cpp    **** bool playing = false;
 356:RM-38D.cpp    **** uint16_t stepLED = 0;
 357:RM-38D.cpp    **** size_t currentSequence = 0;
 358:RM-38D.cpp    **** size_t currentVoice = 0;
 359:RM-38D.cpp    **** void AudioCallback(AudioHandle::InputBuffer in, AudioHandle::OutputBuffer out, size_t size)
 360:RM-38D.cpp    **** {
 361:RM-38D.cpp    **** 	// get messages from main
 362:RM-38D.cpp    **** 	if (controlChangeBuffer.readable()) {
 363:RM-38D.cpp    **** 		ControlChangeMsg cc = controlChangeBuffer.ImmediateRead();
 364:RM-38D.cpp    **** 		if (cc.id == ControlChangeMsg::ID::SAMPLE_VOICE && cc.type == ControlChangeMsg::TYPE::GET) {
 365:RM-38D.cpp    **** 			uint8_t voice = cc.data[0];
 366:RM-38D.cpp    **** 			SendSampleVoice(sampleVoices[voice].GetGain(), sampleVoices[voice].GetPan());
 367:RM-38D.cpp    **** 
 368:RM-38D.cpp    **** 		} else if (cc.id == ControlChangeMsg::ID::VOICE_SEQUENCE && cc.type == ControlChangeMsg::TYPE::GE
ARM GAS  /var/folders/z5/_7t90xy14zq1swjhncg0p5z00000gn/T//ccqpyGtJ.s 			page 36


 369:RM-38D.cpp    **** 			currentSequence = cc.data[1];
 370:RM-38D.cpp    **** 			currentVoice = cc.data[0];
 371:RM-38D.cpp    **** 			SendSequenceParameters({.ledState = (uint16_t)(sequencer.GetSequenceLED(currentSequence, cc.data
 372:RM-38D.cpp    **** 
 373:RM-38D.cpp    **** 		} else if (cc.id == ControlChangeMsg::ID::GLOBAL && cc.type == ControlChangeMsg::TYPE::GET) {
 374:RM-38D.cpp    **** 			SendGlobalParameters({.tempo = sequencer.GetTempo()});
 375:RM-38D.cpp    **** 
 376:RM-38D.cpp    **** 		} else if (cc.id == ControlChangeMsg::ID::VOICE_PAN && (cc.type == ControlChangeMsg::TYPE::INCREM
 377:RM-38D.cpp    **** 			uint8_t voice = cc.data[0];
 378:RM-38D.cpp    **** 			sampleVoices[voice].IncrementPan((cc.type == ControlChangeMsg::TYPE::INCREMENT) ? 1 : -1);
 379:RM-38D.cpp    **** 			SendSampleVoice(sampleVoices[voice].GetGain(), sampleVoices[voice].GetPan());
 380:RM-38D.cpp    **** 
 381:RM-38D.cpp    **** 		} else if (cc.id == ControlChangeMsg::ID::VOICE_GAIN && (cc.type == ControlChangeMsg::TYPE::INCRE
 382:RM-38D.cpp    **** 			uint8_t voice = cc.data[0];
 383:RM-38D.cpp    **** 			sampleVoices[voice].IncrementGain((cc.type == ControlChangeMsg::TYPE::INCREMENT) ? 1 : -1, 0.01)
 384:RM-38D.cpp    **** 			SendSampleVoice(sampleVoices[voice].GetGain(), sampleVoices[voice].GetPan());
 385:RM-38D.cpp    **** 		} else if (cc.id == ControlChangeMsg::ID::GLOBAL_TEMPO && (cc.type == ControlChangeMsg::TYPE::INC
 386:RM-38D.cpp    **** 			sequencer.IncrementTempo(cc.type == ControlChangeMsg::TYPE::INCREMENT ? 1 : -1);
 387:RM-38D.cpp    **** 			SendGlobalParameters({.tempo = sequencer.GetTempo()});
 388:RM-38D.cpp    **** 		} else if (cc.id == ControlChangeMsg::ID::VOICE_SEQUENCE && (cc.type == ControlChangeMsg::TYPE::T
 389:RM-38D.cpp    **** 			sequencer.ToggleSequenceStep(cc.data[1], cc.data[0], cc.data[2]);
 390:RM-38D.cpp    **** 			currentSequence = cc.data[1];
 391:RM-38D.cpp    **** 			currentVoice = cc.data[0];
 392:RM-38D.cpp    **** 			SendSequenceParameters({.ledState = (uint16_t)(sequencer.GetSequenceLED(currentSequence, cc.data
 393:RM-38D.cpp    **** 		} else if (cc.id == ControlChangeMsg::ID::PLAY_PAUSE && (cc.type == ControlChangeMsg::TYPE::TOGGL
 394:RM-38D.cpp    **** 			playing = !playing;
 395:RM-38D.cpp    **** 			stepLED = 0;
 396:RM-38D.cpp    **** 			SendSequenceParameters({.ledState = (uint16_t)(sequencer.GetSequenceLED(currentSequence, current
 397:RM-38D.cpp    **** 		} else if (cc.id == ControlChangeMsg::ID::PLAY_PAUSE && (cc.type == ControlChangeMsg::TYPE::TOGGL
 398:RM-38D.cpp    **** 			playing = !playing;
 399:RM-38D.cpp    **** 			sequencer.Restart();
 400:RM-38D.cpp    **** 			SendSequenceParameters({.ledState = (uint16_t)(sequencer.GetSequenceLED(currentSequence, current
 401:RM-38D.cpp    **** 		}
 402:RM-38D.cpp    **** 	}
 403:RM-38D.cpp    **** 	
 404:RM-38D.cpp    **** 
 405:RM-38D.cpp    **** 	if (playing) {
 406:RM-38D.cpp    **** 		float master_vol = GetVolume();
 407:RM-38D.cpp    **** 		for (size_t i = 0; i < size; i++) {
 408:RM-38D.cpp    **** 			out[0][i] = 0;
 409:RM-38D.cpp    **** 			out[1][i] = 0;
 410:RM-38D.cpp    **** 
 411:RM-38D.cpp    **** 			for (int j=0; j < 16; j++) {
 412:RM-38D.cpp    **** 				Step step = sequencer.GetNewStep(j);
 413:RM-38D.cpp    **** 				if (step.Active()) {
 414:RM-38D.cpp    **** 					sampleVoices[j].Play(step.GetVelocity());
 415:RM-38D.cpp    **** 				} 
 416:RM-38D.cpp    **** 
 417:RM-38D.cpp    **** 				StereoSample samp = sampleVoices[j].StreamStereo();
 418:RM-38D.cpp    **** 				out[0][i] += samp.left;
 419:RM-38D.cpp    **** 				out[1][i] += samp.right;
 420:RM-38D.cpp    **** 			}
 421:RM-38D.cpp    **** 
 422:RM-38D.cpp    **** 			out[0][i] *= master_vol;
 423:RM-38D.cpp    **** 			out[1][i] *= master_vol;
 424:RM-38D.cpp    **** 
 425:RM-38D.cpp    **** 			int currentStep = sequencer.Advance();
ARM GAS  /var/folders/z5/_7t90xy14zq1swjhncg0p5z00000gn/T//ccqpyGtJ.s 			page 37


 426:RM-38D.cpp    **** 			if (currentStep >= 0) {
 427:RM-38D.cpp    **** 				stepLED = 1U << currentStep;
 428:RM-38D.cpp    **** 				SendSequenceParameters({.ledState = (uint16_t)(sequencer.GetSequenceLED(currentSequence, curren
 429:RM-38D.cpp    **** 			}
 430:RM-38D.cpp    **** 		}	
 431:RM-38D.cpp    **** 
 432:RM-38D.cpp    **** 		
 433:RM-38D.cpp    **** 	} else {
 434:RM-38D.cpp    **** 		for (size_t i = 0; i < size; i++) {
 435:RM-38D.cpp    **** 			out[0][i] = 0;
 436:RM-38D.cpp    **** 			out[1][i] = 0;
 437:RM-38D.cpp    **** 		}		
 438:RM-38D.cpp    **** 	}
 439:RM-38D.cpp    **** 
 440:RM-38D.cpp    **** }
 441:RM-38D.cpp    **** 
 442:RM-38D.cpp    **** 
 443:RM-38D.cpp    **** 
 444:RM-38D.cpp    **** void InitVolumeADC() {
 563              		.loc 17 444 22 is_stmt 1 view -0
 564              		.cfi_startproc
 565              		@ args = 0, pretend = 0, frame = 24
 566              		@ frame_needed = 0, uses_anonymous_args = 0
 445:RM-38D.cpp    **** 	AdcChannelConfig adc_config;
 567              		.loc 17 445 2 view .LVU108
 446:RM-38D.cpp    **** 	adc_config.InitSingle(A0);
 568              		.loc 17 446 2 view .LVU109
 569              	.LVL34:
 570              	.LBB558:
 571              	.LBI558:
 572              		.file 18 "../../libDaisy//src/daisy_core.h"
   1:../../libDaisy//src/daisy_core.h **** #pragma once
   2:../../libDaisy//src/daisy_core.h **** #ifndef DSY_CORE_HW_H
   3:../../libDaisy//src/daisy_core.h **** #define DSY_CORE_HW_H /**< & */
   4:../../libDaisy//src/daisy_core.h **** #include <stdint.h>
   5:../../libDaisy//src/daisy_core.h **** #include <stdlib.h>
   6:../../libDaisy//src/daisy_core.h **** 
   7:../../libDaisy//src/daisy_core.h **** #if defined(_MSC_VER)
   8:../../libDaisy//src/daisy_core.h **** #define FORCE_INLINE __forceinline /**< & */
   9:../../libDaisy//src/daisy_core.h **** #elif defined(__clang__)
  10:../../libDaisy//src/daisy_core.h **** #define FORCE_INLINE inline __attribute__((always_inline)) /**< & */
  11:../../libDaisy//src/daisy_core.h **** #pragma clang diagnostic ignored "-Wduplicate-decl-specifier"
  12:../../libDaisy//src/daisy_core.h **** #elif defined(__GNUC__)
  13:../../libDaisy//src/daisy_core.h **** #define FORCE_INLINE inline __attribute__((always_inline)) /**< & */
  14:../../libDaisy//src/daisy_core.h **** #else
  15:../../libDaisy//src/daisy_core.h **** #error unknown compiler
  16:../../libDaisy//src/daisy_core.h **** #endif
  17:../../libDaisy//src/daisy_core.h **** 
  18:../../libDaisy//src/daisy_core.h **** /** @addtogroup utility
  19:../../libDaisy//src/daisy_core.h ****     @{
  20:../../libDaisy//src/daisy_core.h **** */
  21:../../libDaisy//src/daisy_core.h **** 
  22:../../libDaisy//src/daisy_core.h **** /** Macro for area of memory that is configured as cacheless
  23:../../libDaisy//src/daisy_core.h **** This should be used primarily for DMA buffers, and the like.
  24:../../libDaisy//src/daisy_core.h **** */
  25:../../libDaisy//src/daisy_core.h **** #define DMA_BUFFER_MEM_SECTION __attribute__((section(".sram1_bss")))
  26:../../libDaisy//src/daisy_core.h **** /** 
ARM GAS  /var/folders/z5/_7t90xy14zq1swjhncg0p5z00000gn/T//ccqpyGtJ.s 			page 38


  27:../../libDaisy//src/daisy_core.h **** THE DTCM RAM section is also non-cached. However, is not suitable 
  28:../../libDaisy//src/daisy_core.h **** for DMA transfers. Performance is on par with internal SRAM w/ 
  29:../../libDaisy//src/daisy_core.h **** cache enabled.
  30:../../libDaisy//src/daisy_core.h **** */
  31:../../libDaisy//src/daisy_core.h **** #define DTCM_MEM_SECTION __attribute__((section(".dtcmram_bss")))
  32:../../libDaisy//src/daisy_core.h **** 
  33:../../libDaisy//src/daisy_core.h **** #define FBIPMAX 0.999985f             /**< close to 1.0f-LSB at 16 bit */
  34:../../libDaisy//src/daisy_core.h **** #define FBIPMIN (-FBIPMAX)            /**< - (1 - LSB) */
  35:../../libDaisy//src/daisy_core.h **** #define U82F_SCALE 0.0078740f         /**< 1 / 127 */
  36:../../libDaisy//src/daisy_core.h **** #define F2U8_SCALE 127.0f             /**< 128 - 1 */
  37:../../libDaisy//src/daisy_core.h **** #define S82F_SCALE 0.0078125f         /**< 1 / (2**7) */
  38:../../libDaisy//src/daisy_core.h **** #define F2S8_SCALE 127.0f             /**< (2 ** 7) - 1 */
  39:../../libDaisy//src/daisy_core.h **** #define S162F_SCALE 3.0517578125e-05f /**< 1 / (2** 15) */
  40:../../libDaisy//src/daisy_core.h **** #define F2S16_SCALE 32767.0f          /**< (2 ** 15) - 1 */
  41:../../libDaisy//src/daisy_core.h **** #define F2S24_SCALE 8388608.0f        /**< 2 ** 23 */
  42:../../libDaisy//src/daisy_core.h **** #define S242F_SCALE 1.192092896e-07f  /**< 1 / (2 ** 23) */
  43:../../libDaisy//src/daisy_core.h **** #define S24SIGN 0x800000              /**< 2 ** 23 */
  44:../../libDaisy//src/daisy_core.h **** #define S322F_SCALE 4.6566129e-10f    /**< 1 / (2** 31) */
  45:../../libDaisy//src/daisy_core.h **** #define F2S32_SCALE 2147483647.f      /**< (2 ** 31) - 1 */
  46:../../libDaisy//src/daisy_core.h **** 
  47:../../libDaisy//src/daisy_core.h **** 
  48:../../libDaisy//src/daisy_core.h **** /** shorthand macro for simplifying the reading of the left 
  49:../../libDaisy//src/daisy_core.h ****  *  channel of a non-interleaved output buffer named out */
  50:../../libDaisy//src/daisy_core.h **** #define OUT_L out[0]
  51:../../libDaisy//src/daisy_core.h **** 
  52:../../libDaisy//src/daisy_core.h **** /** shorthand macro for simplifying the reading of the right 
  53:../../libDaisy//src/daisy_core.h ****  *  channel of a non-interleaved output buffer named out */
  54:../../libDaisy//src/daisy_core.h **** #define OUT_R out[1]
  55:../../libDaisy//src/daisy_core.h **** 
  56:../../libDaisy//src/daisy_core.h **** /** shorthand macro for simplifying the reading of the left 
  57:../../libDaisy//src/daisy_core.h ****  *  channel of a non-interleaved input buffer named in */
  58:../../libDaisy//src/daisy_core.h **** #define IN_L in[0]
  59:../../libDaisy//src/daisy_core.h **** 
  60:../../libDaisy//src/daisy_core.h **** /** shorthand macro for simplifying the reading of the right 
  61:../../libDaisy//src/daisy_core.h ****  *  channel of a non-interleaved input buffer named in */
  62:../../libDaisy//src/daisy_core.h **** #define IN_R in[1]
  63:../../libDaisy//src/daisy_core.h **** 
  64:../../libDaisy//src/daisy_core.h **** /** 
  65:../../libDaisy//src/daisy_core.h ****     Computes cube.
  66:../../libDaisy//src/daisy_core.h ****     \param x Number to be cubed
  67:../../libDaisy//src/daisy_core.h ****     \return x ^ 3
  68:../../libDaisy//src/daisy_core.h **** */
  69:../../libDaisy//src/daisy_core.h **** FORCE_INLINE float cube(float x)
  70:../../libDaisy//src/daisy_core.h **** {
  71:../../libDaisy//src/daisy_core.h ****     return (x * x) * x;
  72:../../libDaisy//src/daisy_core.h **** }
  73:../../libDaisy//src/daisy_core.h **** 
  74:../../libDaisy//src/daisy_core.h **** /** 
  75:../../libDaisy//src/daisy_core.h ****     Converts unsigned 8-bit to float
  76:../../libDaisy//src/daisy_core.h ****     \param x Number to be scaled.
  77:../../libDaisy//src/daisy_core.h ****     \return Scaled number.
  78:../../libDaisy//src/daisy_core.h **** */
  79:../../libDaisy//src/daisy_core.h **** FORCE_INLINE float u82f(uint8_t x)
  80:../../libDaisy//src/daisy_core.h **** {
  81:../../libDaisy//src/daisy_core.h ****     return ((float)x - 127.f) * U82F_SCALE;
  82:../../libDaisy//src/daisy_core.h **** }
  83:../../libDaisy//src/daisy_core.h **** 
ARM GAS  /var/folders/z5/_7t90xy14zq1swjhncg0p5z00000gn/T//ccqpyGtJ.s 			page 39


  84:../../libDaisy//src/daisy_core.h **** /**
  85:../../libDaisy//src/daisy_core.h ****     Converts float to unsigned 8-bit
  86:../../libDaisy//src/daisy_core.h **** */
  87:../../libDaisy//src/daisy_core.h **** FORCE_INLINE uint8_t f2u8(float x)
  88:../../libDaisy//src/daisy_core.h **** {
  89:../../libDaisy//src/daisy_core.h ****     x = x <= FBIPMIN ? FBIPMIN : x;
  90:../../libDaisy//src/daisy_core.h ****     x = x >= FBIPMAX ? FBIPMAX : x;
  91:../../libDaisy//src/daisy_core.h ****     return (uint8_t)((x * F2U8_SCALE) + F2U8_SCALE);
  92:../../libDaisy//src/daisy_core.h **** }
  93:../../libDaisy//src/daisy_core.h **** 
  94:../../libDaisy//src/daisy_core.h **** 
  95:../../libDaisy//src/daisy_core.h **** /** 
  96:../../libDaisy//src/daisy_core.h ****     Converts Signed 8-bit to float
  97:../../libDaisy//src/daisy_core.h ****     \param x Number to be scaled.
  98:../../libDaisy//src/daisy_core.h ****     \return Scaled number.
  99:../../libDaisy//src/daisy_core.h **** */
 100:../../libDaisy//src/daisy_core.h **** FORCE_INLINE float s82f(int8_t x)
 101:../../libDaisy//src/daisy_core.h **** {
 102:../../libDaisy//src/daisy_core.h ****     return (float)x * S82F_SCALE;
 103:../../libDaisy//src/daisy_core.h **** }
 104:../../libDaisy//src/daisy_core.h **** 
 105:../../libDaisy//src/daisy_core.h **** /**
 106:../../libDaisy//src/daisy_core.h ****     Converts float to Signed 8-bit
 107:../../libDaisy//src/daisy_core.h **** */
 108:../../libDaisy//src/daisy_core.h **** FORCE_INLINE int8_t f2s8(float x)
 109:../../libDaisy//src/daisy_core.h **** {
 110:../../libDaisy//src/daisy_core.h ****     x = x <= FBIPMIN ? FBIPMIN : x;
 111:../../libDaisy//src/daisy_core.h ****     x = x >= FBIPMAX ? FBIPMAX : x;
 112:../../libDaisy//src/daisy_core.h ****     return (int32_t)(x * F2S8_SCALE);
 113:../../libDaisy//src/daisy_core.h **** }
 114:../../libDaisy//src/daisy_core.h **** 
 115:../../libDaisy//src/daisy_core.h **** /** 
 116:../../libDaisy//src/daisy_core.h ****     Converts Signed 16-bit to float
 117:../../libDaisy//src/daisy_core.h ****     \param x Number to be scaled.
 118:../../libDaisy//src/daisy_core.h ****     \return Scaled number.
 119:../../libDaisy//src/daisy_core.h **** */
 120:../../libDaisy//src/daisy_core.h **** FORCE_INLINE float s162f(int16_t x)
 121:../../libDaisy//src/daisy_core.h **** {
 122:../../libDaisy//src/daisy_core.h ****     return (float)x * S162F_SCALE;
 123:../../libDaisy//src/daisy_core.h **** }
 124:../../libDaisy//src/daisy_core.h **** 
 125:../../libDaisy//src/daisy_core.h **** /**
 126:../../libDaisy//src/daisy_core.h ****     Converts float to Signed 16-bit
 127:../../libDaisy//src/daisy_core.h **** */
 128:../../libDaisy//src/daisy_core.h **** FORCE_INLINE int16_t f2s16(float x)
 129:../../libDaisy//src/daisy_core.h **** {
 130:../../libDaisy//src/daisy_core.h ****     x = x <= FBIPMIN ? FBIPMIN : x;
 131:../../libDaisy//src/daisy_core.h ****     x = x >= FBIPMAX ? FBIPMAX : x;
 132:../../libDaisy//src/daisy_core.h ****     return (int32_t)(x * F2S16_SCALE);
 133:../../libDaisy//src/daisy_core.h **** }
 134:../../libDaisy//src/daisy_core.h **** 
 135:../../libDaisy//src/daisy_core.h **** /**
 136:../../libDaisy//src/daisy_core.h ****     Converts Signed 24-bit to float
 137:../../libDaisy//src/daisy_core.h ****  */
 138:../../libDaisy//src/daisy_core.h **** FORCE_INLINE float s242f(int32_t x)
 139:../../libDaisy//src/daisy_core.h **** {
 140:../../libDaisy//src/daisy_core.h ****     x = (x ^ S24SIGN) - S24SIGN; //sign extend aka ((x<<8)>>8)
ARM GAS  /var/folders/z5/_7t90xy14zq1swjhncg0p5z00000gn/T//ccqpyGtJ.s 			page 40


 141:../../libDaisy//src/daisy_core.h ****     return (float)x * S242F_SCALE;
 142:../../libDaisy//src/daisy_core.h **** }
 143:../../libDaisy//src/daisy_core.h **** /**
 144:../../libDaisy//src/daisy_core.h ****     Converts float to Signed 24-bit
 145:../../libDaisy//src/daisy_core.h ****  */
 146:../../libDaisy//src/daisy_core.h **** FORCE_INLINE int32_t f2s24(float x)
 147:../../libDaisy//src/daisy_core.h **** {
 148:../../libDaisy//src/daisy_core.h ****     x = x <= FBIPMIN ? FBIPMIN : x;
 149:../../libDaisy//src/daisy_core.h ****     x = x >= FBIPMAX ? FBIPMAX : x;
 150:../../libDaisy//src/daisy_core.h ****     return (int32_t)(x * F2S24_SCALE);
 151:../../libDaisy//src/daisy_core.h **** }
 152:../../libDaisy//src/daisy_core.h **** 
 153:../../libDaisy//src/daisy_core.h **** /**
 154:../../libDaisy//src/daisy_core.h ****     Converts Signed 32-bit to float
 155:../../libDaisy//src/daisy_core.h ****  */
 156:../../libDaisy//src/daisy_core.h **** FORCE_INLINE float s322f(int32_t x)
 157:../../libDaisy//src/daisy_core.h **** {
 158:../../libDaisy//src/daisy_core.h ****     return (float)x * S322F_SCALE;
 159:../../libDaisy//src/daisy_core.h **** }
 160:../../libDaisy//src/daisy_core.h **** /**
 161:../../libDaisy//src/daisy_core.h ****     Converts float to Signed 24-bit
 162:../../libDaisy//src/daisy_core.h ****  */
 163:../../libDaisy//src/daisy_core.h **** FORCE_INLINE int32_t f2s32(float x)
 164:../../libDaisy//src/daisy_core.h **** {
 165:../../libDaisy//src/daisy_core.h ****     x = x <= FBIPMIN ? FBIPMIN : x;
 166:../../libDaisy//src/daisy_core.h ****     x = x >= FBIPMAX ? FBIPMAX : x;
 167:../../libDaisy//src/daisy_core.h ****     return (int32_t)(x * F2S32_SCALE);
 168:../../libDaisy//src/daisy_core.h **** }
 169:../../libDaisy//src/daisy_core.h **** 
 170:../../libDaisy//src/daisy_core.h **** 
 171:../../libDaisy//src/daisy_core.h **** /** Enums and a simple struct for defining a hardware pin on the MCU
 172:../../libDaisy//src/daisy_core.h ****  *  These correlate with the stm32 datasheet, and are used to configure
 173:../../libDaisy//src/daisy_core.h ****  *  the hardware.
 174:../../libDaisy//src/daisy_core.h ****  * 
 175:../../libDaisy//src/daisy_core.h ****  *  This along with the dsy_gpio_pin class should no longer be used.
 176:../../libDaisy//src/daisy_core.h ****  *  They are available for backwards compatability. 
 177:../../libDaisy//src/daisy_core.h ****  * 
 178:../../libDaisy//src/daisy_core.h ****  *  Please use GPIOPort enum and the Pin struct instead.
 179:../../libDaisy//src/daisy_core.h ****  */
 180:../../libDaisy//src/daisy_core.h **** typedef enum
 181:../../libDaisy//src/daisy_core.h **** {
 182:../../libDaisy//src/daisy_core.h ****     DSY_GPIOA, /**< & */
 183:../../libDaisy//src/daisy_core.h ****     DSY_GPIOB, /**< & */
 184:../../libDaisy//src/daisy_core.h ****     DSY_GPIOC, /**< & */
 185:../../libDaisy//src/daisy_core.h ****     DSY_GPIOD, /**< & */
 186:../../libDaisy//src/daisy_core.h ****     DSY_GPIOE, /**< & */
 187:../../libDaisy//src/daisy_core.h ****     DSY_GPIOF, /**< & */
 188:../../libDaisy//src/daisy_core.h ****     DSY_GPIOG, /**< & */
 189:../../libDaisy//src/daisy_core.h ****     DSY_GPIOH, /**< & */
 190:../../libDaisy//src/daisy_core.h ****     DSY_GPIOI, /**< & */
 191:../../libDaisy//src/daisy_core.h ****     DSY_GPIOJ, /**< & */
 192:../../libDaisy//src/daisy_core.h ****     DSY_GPIOK, /**< & */
 193:../../libDaisy//src/daisy_core.h ****     DSY_GPIOX, /** This is a non-existant port for unsupported bits of hardware. */
 194:../../libDaisy//src/daisy_core.h ****     DSY_GPIO_LAST, /** Final enum member */
 195:../../libDaisy//src/daisy_core.h **** } dsy_gpio_port;
 196:../../libDaisy//src/daisy_core.h **** 
 197:../../libDaisy//src/daisy_core.h **** /** Hardware define pins 
ARM GAS  /var/folders/z5/_7t90xy14zq1swjhncg0p5z00000gn/T//ccqpyGtJ.s 			page 41


 198:../../libDaisy//src/daisy_core.h ****  *  
 199:../../libDaisy//src/daisy_core.h ****  *  The dsy_gpio_pin struct should no longer be used, and is only available for
 200:../../libDaisy//src/daisy_core.h ****  *  backwards compatability.
 201:../../libDaisy//src/daisy_core.h ****  * 
 202:../../libDaisy//src/daisy_core.h ****  *  Please use Pin struct instead.
 203:../../libDaisy//src/daisy_core.h ****  */
 204:../../libDaisy//src/daisy_core.h **** typedef struct
 205:../../libDaisy//src/daisy_core.h **** {
 206:../../libDaisy//src/daisy_core.h ****     dsy_gpio_port port; /**< & */
 207:../../libDaisy//src/daisy_core.h ****     uint8_t       pin;  /**< number 0-15 */
 208:../../libDaisy//src/daisy_core.h **** } dsy_gpio_pin;
 209:../../libDaisy//src/daisy_core.h **** 
 210:../../libDaisy//src/daisy_core.h **** /** Helper for creating pins from port/pin combos easily
 211:../../libDaisy//src/daisy_core.h ****  * 
 212:../../libDaisy//src/daisy_core.h ****  *  The dsy_gpio_pin struct should no longer be used, and is only available for
 213:../../libDaisy//src/daisy_core.h ****  *  backwards compatability.
 214:../../libDaisy//src/daisy_core.h ****  * 
 215:../../libDaisy//src/daisy_core.h ****  *  Please use Pin struct instead.
 216:../../libDaisy//src/daisy_core.h **** */
 217:../../libDaisy//src/daisy_core.h **** FORCE_INLINE dsy_gpio_pin dsy_pin(dsy_gpio_port port, uint8_t pin)
 218:../../libDaisy//src/daisy_core.h **** {
 219:../../libDaisy//src/daisy_core.h ****     dsy_gpio_pin p;
 220:../../libDaisy//src/daisy_core.h ****     p.port = port;
 221:../../libDaisy//src/daisy_core.h ****     p.pin  = pin;
 222:../../libDaisy//src/daisy_core.h ****     return p;
 223:../../libDaisy//src/daisy_core.h **** }
 224:../../libDaisy//src/daisy_core.h **** 
 225:../../libDaisy//src/daisy_core.h **** /** Helper for testing sameness of two dsy_gpio_pins
 226:../../libDaisy//src/daisy_core.h ****  *  \return    1 if same, 0 if different
 227:../../libDaisy//src/daisy_core.h ****  * 
 228:../../libDaisy//src/daisy_core.h ****  *  The dsy_gpio_pin struct should no longer be used, and is only available for
 229:../../libDaisy//src/daisy_core.h ****  *  backwards compatability.
 230:../../libDaisy//src/daisy_core.h ****  * 
 231:../../libDaisy//src/daisy_core.h ****  *  Please use Pin struct instead.
 232:../../libDaisy//src/daisy_core.h ****  */
 233:../../libDaisy//src/daisy_core.h **** FORCE_INLINE uint8_t dsy_pin_cmp(dsy_gpio_pin *a, dsy_gpio_pin *b)
 234:../../libDaisy//src/daisy_core.h **** {
 235:../../libDaisy//src/daisy_core.h ****     return ((a->port == b->port) && (a->pin == b->pin));
 236:../../libDaisy//src/daisy_core.h **** }
 237:../../libDaisy//src/daisy_core.h **** 
 238:../../libDaisy//src/daisy_core.h **** #ifdef __cplusplus
 239:../../libDaisy//src/daisy_core.h **** 
 240:../../libDaisy//src/daisy_core.h **** namespace daisy
 241:../../libDaisy//src/daisy_core.h **** {
 242:../../libDaisy//src/daisy_core.h **** /** @brief GPIO Port names */
 243:../../libDaisy//src/daisy_core.h **** enum GPIOPort
 244:../../libDaisy//src/daisy_core.h **** {
 245:../../libDaisy//src/daisy_core.h ****     PORTA, /**< Port A */
 246:../../libDaisy//src/daisy_core.h ****     PORTB, /**< Port B */
 247:../../libDaisy//src/daisy_core.h ****     PORTC, /**< Port C */
 248:../../libDaisy//src/daisy_core.h ****     PORTD, /**< Port D */
 249:../../libDaisy//src/daisy_core.h ****     PORTE, /**< Port E */
 250:../../libDaisy//src/daisy_core.h ****     PORTF, /**< Port F */
 251:../../libDaisy//src/daisy_core.h ****     PORTG, /**< Port G */
 252:../../libDaisy//src/daisy_core.h ****     PORTH, /**< Port H */
 253:../../libDaisy//src/daisy_core.h ****     PORTI, /**< Port I */
 254:../../libDaisy//src/daisy_core.h ****     PORTJ, /**< Port J */
ARM GAS  /var/folders/z5/_7t90xy14zq1swjhncg0p5z00000gn/T//ccqpyGtJ.s 			page 42


 255:../../libDaisy//src/daisy_core.h ****     PORTK, /**< Port K */
 256:../../libDaisy//src/daisy_core.h ****     PORTX, /**< Used as a dummy port to signal an invalid pin. */
 257:../../libDaisy//src/daisy_core.h **** };
 258:../../libDaisy//src/daisy_core.h **** 
 259:../../libDaisy//src/daisy_core.h **** /** @brief representation of hardware port/pin combination */
 260:../../libDaisy//src/daisy_core.h **** struct Pin
 261:../../libDaisy//src/daisy_core.h **** {
 262:../../libDaisy//src/daisy_core.h ****     GPIOPort port;
 263:../../libDaisy//src/daisy_core.h ****     uint8_t  pin;
 264:../../libDaisy//src/daisy_core.h **** 
 265:../../libDaisy//src/daisy_core.h ****     /** @brief Constructor creates a valid pin. 
 266:../../libDaisy//src/daisy_core.h ****      *  @param pt GPIOPort between PA, and PK corresponding to STM32 Port.
 267:../../libDaisy//src/daisy_core.h ****      *  @param pn pin number in range of 0-15
 268:../../libDaisy//src/daisy_core.h ****     */
 269:../../libDaisy//src/daisy_core.h ****     constexpr Pin(const GPIOPort pt, const uint8_t pn) : port(pt), pin(pn) {}
 270:../../libDaisy//src/daisy_core.h **** 
 271:../../libDaisy//src/daisy_core.h ****     /** @brief Basic Constructor creates an invalid Pin object */
 272:../../libDaisy//src/daisy_core.h ****     constexpr Pin() : port(PORTX), pin(255) {}
 273:../../libDaisy//src/daisy_core.h **** 
 274:../../libDaisy//src/daisy_core.h ****     /** @brief checks validity of a Pin 
 275:../../libDaisy//src/daisy_core.h ****      *  @retval returns true if the port is a valid hardware pin, otherwise false.
 276:../../libDaisy//src/daisy_core.h ****     */
 277:../../libDaisy//src/daisy_core.h ****     constexpr bool IsValid() const { return port != PORTX && pin < 16; }
 278:../../libDaisy//src/daisy_core.h **** 
 279:../../libDaisy//src/daisy_core.h ****     /** @brief comparison operator for checking equality between Pin objects */
 280:../../libDaisy//src/daisy_core.h ****     constexpr bool operator==(const Pin &rhs) const
 281:../../libDaisy//src/daisy_core.h ****     {
 282:../../libDaisy//src/daisy_core.h ****         return (rhs.port == port) && (rhs.pin == pin);
 283:../../libDaisy//src/daisy_core.h ****     }
 284:../../libDaisy//src/daisy_core.h **** 
 285:../../libDaisy//src/daisy_core.h ****     /** @brief comparison operator for checking inequality between Pin objects */
 286:../../libDaisy//src/daisy_core.h ****     constexpr bool operator!=(const Pin &rhs) const { return !operator==(rhs); }
 287:../../libDaisy//src/daisy_core.h **** 
 288:../../libDaisy//src/daisy_core.h ****     /** @brief conversion operation for converting to the old-style representation
 289:../../libDaisy//src/daisy_core.h ****      *         of a pin.
 290:../../libDaisy//src/daisy_core.h ****      * 
 291:../../libDaisy//src/daisy_core.h ****      *  This allows the new Pin type to be used in place of the older, dsy_gpio_pin
 292:../../libDaisy//src/daisy_core.h ****      *  type.
 293:../../libDaisy//src/daisy_core.h ****      */
 294:../../libDaisy//src/daisy_core.h ****     operator dsy_gpio_pin() const
 573              		.loc 18 294 5 view .LVU110
 574              	.LBE558:
 295:../../libDaisy//src/daisy_core.h ****     {
 296:../../libDaisy//src/daisy_core.h ****         return dsy_pin(static_cast<dsy_gpio_port>(port), pin);
 575              		.loc 18 296 9 view .LVU111
 576              	.LBB560:
 577              	.LBB559:
 578              	.LBI559:
 217:../../libDaisy//src/daisy_core.h **** {
 579              		.loc 18 217 27 view .LVU112
 580              	.LBE559:
 581              	.LBE560:
 219:../../libDaisy//src/daisy_core.h ****     p.port = port;
 582              		.loc 18 219 5 view .LVU113
 220:../../libDaisy//src/daisy_core.h ****     p.pin  = pin;
 583              		.loc 18 220 5 view .LVU114
 221:../../libDaisy//src/daisy_core.h ****     return p;
ARM GAS  /var/folders/z5/_7t90xy14zq1swjhncg0p5z00000gn/T//ccqpyGtJ.s 			page 43


 584              		.loc 18 221 5 view .LVU115
 222:../../libDaisy//src/daisy_core.h **** }
 585              		.loc 18 222 5 view .LVU116
 444:RM-38D.cpp    **** 	AdcChannelConfig adc_config;
 586              		.loc 17 444 22 is_stmt 0 view .LVU117
 587 0000 7FB5     		push	{r0, r1, r2, r3, r4, r5, r6, lr}
 588              		.cfi_def_cfa_offset 32
 589              		.cfi_offset 14, -4
 590 0002 0223     		movs	r3, #2
 591              		.loc 17 446 23 view .LVU118
 592 0004 01A8     		add	r0, sp, #4
 593 0006 8DF80030 		strb	r3, [sp]
 594 000a 0023     		movs	r3, #0
 595 000c 8DF80130 		strb	r3, [sp, #1]
 596              	.LVL35:
 597              		.loc 17 446 23 view .LVU119
 598 0010 0099     		ldr	r1, [sp]
 599 0012 FFF7FEFF 		bl	_ZN5daisy16AdcChannelConfig10InitSingleE12dsy_gpio_pin
 600              	.LVL36:
 447:RM-38D.cpp    **** 	hw.adc.Init(&adc_config, 1);
 601              		.loc 17 447 2 is_stmt 1 view .LVU120
 602              		.loc 17 447 13 is_stmt 0 view .LVU121
 603 0016 0423     		movs	r3, #4
 604 0018 0122     		movs	r2, #1
 605 001a 0548     		ldr	r0, .L20
 606 001c 0DEB0301 		add	r1, sp, r3
 607 0020 FFF7FEFF 		bl	_ZN5daisy9AdcHandle4InitEPNS_16AdcChannelConfigEjNS0_12OverSamplingE
 608              	.LVL37:
 448:RM-38D.cpp    **** 	hw.adc.Start();
 609              		.loc 17 448 2 is_stmt 1 view .LVU122
 610              		.loc 17 448 14 is_stmt 0 view .LVU123
 611 0024 0248     		ldr	r0, .L20
 612 0026 FFF7FEFF 		bl	_ZN5daisy9AdcHandle5StartEv
 613              	.LVL38:
 449:RM-38D.cpp    **** }
 614              		.loc 17 449 1 view .LVU124
 615 002a 07B0     		add	sp, sp, #28
 616              		.cfi_def_cfa_offset 4
 617              		@ sp needed
 618 002c 5DF804FB 		ldr	pc, [sp], #4
 619              	.L21:
 620              		.align	2
 621              	.L20:
 622 0030 18000000 		.word	.LANCHOR0+24
 623              		.cfi_endproc
 624              	.LFE4937:
 626              		.section	.text._Z9GetVolumev,"ax",%progbits
 627              		.align	1
 628              		.global	_Z9GetVolumev
 629              		.syntax unified
 630              		.thumb
 631              		.thumb_func
 633              	_Z9GetVolumev:
 634              	.LFB4938:
 450:RM-38D.cpp    **** 
 451:RM-38D.cpp    **** float GetVolume() {
 635              		.loc 17 451 19 is_stmt 1 view -0
ARM GAS  /var/folders/z5/_7t90xy14zq1swjhncg0p5z00000gn/T//ccqpyGtJ.s 			page 44


 636              		.cfi_startproc
 637              		@ args = 0, pretend = 0, frame = 0
 638              		@ frame_needed = 0, uses_anonymous_args = 0
 452:RM-38D.cpp    **** 	return 1.0 - hw.adc.GetFloat(0);
 639              		.loc 17 452 2 view .LVU126
 640              		.loc 17 452 30 is_stmt 0 view .LVU127
 641 0000 0021     		movs	r1, #0
 642 0002 0448     		ldr	r0, .L23
 451:RM-38D.cpp    **** 	return 1.0 - hw.adc.GetFloat(0);
 643              		.loc 17 451 19 view .LVU128
 644 0004 08B5     		push	{r3, lr}
 645              		.cfi_def_cfa_offset 8
 646              		.cfi_offset 3, -8
 647              		.cfi_offset 14, -4
 648              		.loc 17 452 30 view .LVU129
 649 0006 FFF7FEFF 		bl	_ZNK5daisy9AdcHandle8GetFloatEh
 650              	.LVL39:
 453:RM-38D.cpp    **** }
 651              		.loc 17 453 1 view .LVU130
 652 000a F7EE007A 		vmov.f32	s15, #1.0e+0
 653 000e 37EEC00A 		vsub.f32	s0, s15, s0
 654 0012 08BD     		pop	{r3, pc}
 655              	.L24:
 656              		.align	2
 657              	.L23:
 658 0014 18000000 		.word	.LANCHOR0+24
 659              		.cfi_endproc
 660              	.LFE4938:
 662              		.section	.text._ZN5daisy10RingBufferI16ControlChangeMsgLj32EE5WriteES1_,"axG",%progbits,_ZN5daisy1
 663              		.align	1
 664              		.weak	_ZN5daisy10RingBufferI16ControlChangeMsgLj32EE5WriteES1_
 665              		.syntax unified
 666              		.thumb
 667              		.thumb_func
 669              	_ZN5daisy10RingBufferI16ControlChangeMsgLj32EE5WriteES1_:
 670              	.LVL40:
 671              	.LFB5265:
 672              		.file 19 "../../libDaisy//src/util/ringbuffer.h"
   1:../../libDaisy//src/util/ringbuffer.h **** #pragma once
   2:../../libDaisy//src/util/ringbuffer.h **** #ifndef DSY_RINGBUFFER_H
   3:../../libDaisy//src/util/ringbuffer.h **** #define DSY_RINGBUFFER_H
   4:../../libDaisy//src/util/ringbuffer.h **** 
   5:../../libDaisy//src/util/ringbuffer.h **** #include <algorithm>
   6:../../libDaisy//src/util/ringbuffer.h **** 
   7:../../libDaisy//src/util/ringbuffer.h **** namespace daisy
   8:../../libDaisy//src/util/ringbuffer.h **** {
   9:../../libDaisy//src/util/ringbuffer.h **** /** @addtogroup utility
  10:../../libDaisy//src/util/ringbuffer.h ****     @{
  11:../../libDaisy//src/util/ringbuffer.h **** */
  12:../../libDaisy//src/util/ringbuffer.h **** 
  13:../../libDaisy//src/util/ringbuffer.h **** /**
  14:../../libDaisy//src/util/ringbuffer.h **** Utility Ring Buffer \n 
  15:../../libDaisy//src/util/ringbuffer.h **** imported from pichenettes/stmlib
  16:../../libDaisy//src/util/ringbuffer.h **** */
  17:../../libDaisy//src/util/ringbuffer.h **** template <typename T, size_t size>
  18:../../libDaisy//src/util/ringbuffer.h **** class RingBuffer
  19:../../libDaisy//src/util/ringbuffer.h **** {
ARM GAS  /var/folders/z5/_7t90xy14zq1swjhncg0p5z00000gn/T//ccqpyGtJ.s 			page 45


  20:../../libDaisy//src/util/ringbuffer.h ****   public:
  21:../../libDaisy//src/util/ringbuffer.h ****     RingBuffer() {}
  22:../../libDaisy//src/util/ringbuffer.h **** 
  23:../../libDaisy//src/util/ringbuffer.h ****     /** Initializes the Ring Buffer */
  24:../../libDaisy//src/util/ringbuffer.h ****     inline void Init() { read_ptr_ = write_ptr_ = 0; }
  25:../../libDaisy//src/util/ringbuffer.h **** 
  26:../../libDaisy//src/util/ringbuffer.h ****     /** \return The total size of the ring buffer */
  27:../../libDaisy//src/util/ringbuffer.h ****     inline size_t capacity() const { return size; }
  28:../../libDaisy//src/util/ringbuffer.h **** 
  29:../../libDaisy//src/util/ringbuffer.h ****     /** \return the number of samples that can be written to ring buffer without overwriting unread
  30:../../libDaisy//src/util/ringbuffer.h ****     inline size_t writable() const
  31:../../libDaisy//src/util/ringbuffer.h ****     {
  32:../../libDaisy//src/util/ringbuffer.h ****         return (read_ptr_ - write_ptr_ - 1) % size;
  33:../../libDaisy//src/util/ringbuffer.h ****     }
  34:../../libDaisy//src/util/ringbuffer.h **** 
  35:../../libDaisy//src/util/ringbuffer.h ****     /** \return number of unread elements in ring buffer */
  36:../../libDaisy//src/util/ringbuffer.h ****     inline size_t readable() const { return (write_ptr_ - read_ptr_) % size; }
  37:../../libDaisy//src/util/ringbuffer.h **** 
  38:../../libDaisy//src/util/ringbuffer.h ****     /** \returns True, if the buffer is empty. */
  39:../../libDaisy//src/util/ringbuffer.h ****     inline bool isEmpty() const { return write_ptr_ == read_ptr_; }
  40:../../libDaisy//src/util/ringbuffer.h **** 
  41:../../libDaisy//src/util/ringbuffer.h ****     /** Writes the value to the next available position in the ring buffer
  42:../../libDaisy//src/util/ringbuffer.h ****     \param v Value to write
  43:../../libDaisy//src/util/ringbuffer.h ****     */
  44:../../libDaisy//src/util/ringbuffer.h ****     inline void Write(T v)
 673              		.loc 19 44 17 is_stmt 1 view -0
 674              		.cfi_startproc
 675              		@ args = 0, pretend = 0, frame = 32
 676              		@ frame_needed = 0, uses_anonymous_args = 0
 677              		.loc 19 44 17 is_stmt 0 view .LVU132
 678 0000 70B5     		push	{r4, r5, r6, lr}
 679              		.cfi_def_cfa_offset 16
 680              		.cfi_offset 4, -16
 681              		.cfi_offset 5, -12
 682              		.cfi_offset 6, -8
 683              		.cfi_offset 14, -4
 684 0002 88B0     		sub	sp, sp, #32
 685              		.cfi_def_cfa_offset 48
 686 0004 0446     		mov	r4, r0
 687 0006 01A8     		add	r0, sp, #4
 688              	.LVL41:
 689              		.loc 19 44 17 view .LVU133
 690 0008 80E80E00 		stm	r0, {r1, r2, r3}
 691              	.L26:
  45:../../libDaisy//src/util/ringbuffer.h ****     {
  46:../../libDaisy//src/util/ringbuffer.h ****         while(!writable())
 692              		.loc 19 46 24 is_stmt 1 view .LVU134
 693              	.LVL42:
 694              	.LBB565:
 695              	.LBI565:
  30:../../libDaisy//src/util/ringbuffer.h ****     {
 696              		.loc 19 30 19 view .LVU135
 697              	.LBB566:
  32:../../libDaisy//src/util/ringbuffer.h ****     }
 698              		.loc 19 32 17 is_stmt 0 view .LVU136
 699 000c D4F86031 		ldr	r3, [r4, #352]
  32:../../libDaisy//src/util/ringbuffer.h ****     }
ARM GAS  /var/folders/z5/_7t90xy14zq1swjhncg0p5z00000gn/T//ccqpyGtJ.s 			page 46


 700              		.loc 19 32 29 view .LVU137
 701 0010 D4F86421 		ldr	r2, [r4, #356]
 702              	.LVL43:
  32:../../libDaisy//src/util/ringbuffer.h ****     }
 703              		.loc 19 32 40 view .LVU138
 704 0014 013B     		subs	r3, r3, #1
 705 0016 9B1A     		subs	r3, r3, r2
 706              	.LBE566:
 707              	.LBE565:
 708              		.loc 19 46 24 view .LVU139
 709 0018 DB06     		lsls	r3, r3, #27
 710 001a F7D0     		beq	.L26
 711              	.LVL44:
 712              		.loc 19 46 24 view .LVU140
 713 001c 05AB     		add	r3, sp, #20
 714              	.LBB567:
 715              	.LBB568:
  47:../../libDaisy//src/util/ringbuffer.h ****             ;
  48:../../libDaisy//src/util/ringbuffer.h ****         Overwrite(v);
  49:../../libDaisy//src/util/ringbuffer.h ****     }
  50:../../libDaisy//src/util/ringbuffer.h **** 
  51:../../libDaisy//src/util/ringbuffer.h ****     /** Writes the new element to the ring buffer, overwriting unread data if necessary. 
  52:../../libDaisy//src/util/ringbuffer.h ****     \param v Value to overwrite
  53:../../libDaisy//src/util/ringbuffer.h ****      */
  54:../../libDaisy//src/util/ringbuffer.h ****     inline void Overwrite(T v)
  55:../../libDaisy//src/util/ringbuffer.h ****     {
  56:../../libDaisy//src/util/ringbuffer.h ****         size_t w   = write_ptr_;
  57:../../libDaisy//src/util/ringbuffer.h ****         buffer_[w] = v;
 716              		.loc 19 57 9 view .LVU141
 717 001e 0B25     		movs	r5, #11
 718 0020 07C8     		ldm	r0, {r0, r1, r2}
 719 0022 03C3     		stmia	r3!, {r0, r1}
 720 0024 23F8022B 		strh	r2, [r3], #2	@ movhi
 721 0028 120C     		lsrs	r2, r2, #16
 722 002a 1A70     		strb	r2, [r3]
 723              	.LBE568:
 724              	.LBI567:
  54:../../libDaisy//src/util/ringbuffer.h ****     {
 725              		.loc 19 54 17 is_stmt 1 view .LVU142
 726              	.LBB569:
 727              		.loc 19 57 9 is_stmt 0 view .LVU143
 728 002c 05AA     		add	r2, sp, #20
  56:../../libDaisy//src/util/ringbuffer.h ****         buffer_[w] = v;
 729              		.loc 19 56 16 view .LVU144
 730 002e D4F86431 		ldr	r3, [r4, #356]
 731              	.LVL45:
 732              		.loc 19 57 9 view .LVU145
 733 0032 5D43     		muls	r5, r3, r5
  58:../../libDaisy//src/util/ringbuffer.h ****         write_ptr_ = (w + 1) % size;
 734              		.loc 19 58 25 view .LVU146
 735 0034 0133     		adds	r3, r3, #1
 736              	.LVL46:
  57:../../libDaisy//src/util/ringbuffer.h ****         write_ptr_ = (w + 1) % size;
 737              		.loc 19 57 9 view .LVU147
 738 0036 03CA     		ldmia	r2!, {r0, r1}
 739 0038 6619     		adds	r6, r4, r5
 740              		.loc 19 58 30 view .LVU148
ARM GAS  /var/folders/z5/_7t90xy14zq1swjhncg0p5z00000gn/T//ccqpyGtJ.s 			page 47


 741 003a 03F01F03 		and	r3, r3, #31
 742              	.LVL47:
  57:../../libDaisy//src/util/ringbuffer.h ****         write_ptr_ = (w + 1) % size;
 743              		.loc 19 57 9 view .LVU149
 744 003e 6051     		str	r0, [r4, r5]	@ unaligned
 745 0040 7160     		str	r1, [r6, #4]	@ unaligned
 746 0042 1188     		ldrh	r1, [r2]	@ unaligned
 747 0044 9278     		ldrb	r2, [r2, #2]	@ zero_extendqisi2
 748 0046 3181     		strh	r1, [r6, #8]	@ unaligned
 749 0048 B272     		strb	r2, [r6, #10]
 750              		.loc 19 58 20 view .LVU150
 751 004a C4F86431 		str	r3, [r4, #356]
 752              	.LVL48:
 753              		.loc 19 58 20 view .LVU151
 754              	.LBE569:
 755              	.LBE567:
  49:../../libDaisy//src/util/ringbuffer.h **** 
 756              		.loc 19 49 5 view .LVU152
 757 004e 08B0     		add	sp, sp, #32
 758              		.cfi_def_cfa_offset 16
 759              		@ sp needed
 760 0050 70BD     		pop	{r4, r5, r6, pc}
  49:../../libDaisy//src/util/ringbuffer.h **** 
 761              		.loc 19 49 5 view .LVU153
 762              		.cfi_endproc
 763              	.LFE5265:
 765              		.section	.text._Z14GetSampleVoiceh,"ax",%progbits
 766              		.align	1
 767              		.global	_Z14GetSampleVoiceh
 768              		.syntax unified
 769              		.thumb
 770              		.thumb_func
 772              	_Z14GetSampleVoiceh:
 773              	.LVL49:
 774              	.LFB4915:
  65:RM-38D.cpp    **** 	ControlChangeMsg cc;
 775              		.loc 17 65 36 is_stmt 1 view -0
 776              		.cfi_startproc
 777              		@ args = 0, pretend = 0, frame = 16
 778              		@ frame_needed = 0, uses_anonymous_args = 0
  66:RM-38D.cpp    **** 	cc.id = ControlChangeMsg::ID::SAMPLE_VOICE;
 779              		.loc 17 66 2 view .LVU155
  67:RM-38D.cpp    **** 	cc.type = ControlChangeMsg::TYPE::GET;
 780              		.loc 17 67 2 view .LVU156
  65:RM-38D.cpp    **** 	ControlChangeMsg cc;
 781              		.loc 17 65 36 is_stmt 0 view .LVU157
 782 0000 1FB5     		push	{r0, r1, r2, r3, r4, lr}
 783              		.cfi_def_cfa_offset 24
 784              		.cfi_offset 14, -4
  67:RM-38D.cpp    **** 	cc.type = ControlChangeMsg::TYPE::GET;
 785              		.loc 17 67 8 view .LVU158
 786 0002 0423     		movs	r3, #4
  69:RM-38D.cpp    **** 	controlChangeBuffer.Write(cc);
 787              		.loc 17 69 13 view .LVU159
 788 0004 8DF80600 		strb	r0, [sp, #6]
  70:RM-38D.cpp    **** }
 789              		.loc 17 70 27 view .LVU160
ARM GAS  /var/folders/z5/_7t90xy14zq1swjhncg0p5z00000gn/T//ccqpyGtJ.s 			page 48


 790 0008 0648     		ldr	r0, .L30
 791              	.LVL50:
  67:RM-38D.cpp    **** 	cc.type = ControlChangeMsg::TYPE::GET;
 792              		.loc 17 67 8 view .LVU161
 793 000a 8DF80430 		strb	r3, [sp, #4]
  68:RM-38D.cpp    **** 	cc.data[0] = voice;		
 794              		.loc 17 68 2 is_stmt 1 view .LVU162
  68:RM-38D.cpp    **** 	cc.data[0] = voice;		
 795              		.loc 17 68 10 is_stmt 0 view .LVU163
 796 000e 0123     		movs	r3, #1
 797 0010 8DF80530 		strb	r3, [sp, #5]
  69:RM-38D.cpp    **** 	controlChangeBuffer.Write(cc);
 798              		.loc 17 69 2 is_stmt 1 view .LVU164
  70:RM-38D.cpp    **** }
 799              		.loc 17 70 2 view .LVU165
  70:RM-38D.cpp    **** }
 800              		.loc 17 70 27 is_stmt 0 view .LVU166
 801 0014 04AB     		add	r3, sp, #16
 802 0016 13E90E00 		ldmdb	r3, {r1, r2, r3}
 803 001a FFF7FEFF 		bl	_ZN5daisy10RingBufferI16ControlChangeMsgLj32EE5WriteES1_
 804              	.LVL51:
  71:RM-38D.cpp    **** 
 805              		.loc 17 71 1 view .LVU167
 806 001e 05B0     		add	sp, sp, #20
 807              		.cfi_def_cfa_offset 4
 808              		@ sp needed
 809 0020 5DF804FB 		ldr	pc, [sp], #4
 810              	.LVL52:
 811              	.L31:
  71:RM-38D.cpp    **** 
 812              		.loc 17 71 1 view .LVU168
 813              		.align	2
 814              	.L30:
 815 0024 00000000 		.word	.LANCHOR1
 816              		.cfi_endproc
 817              	.LFE4915:
 819              		.section	.text._Z11GetSequencehh,"ax",%progbits
 820              		.align	1
 821              		.global	_Z11GetSequencehh
 822              		.syntax unified
 823              		.thumb
 824              		.thumb_func
 826              	_Z11GetSequencehh:
 827              	.LVL53:
 828              	.LFB4916:
  73:RM-38D.cpp    **** 	ControlChangeMsg cc;
 829              		.loc 17 73 51 is_stmt 1 view -0
 830              		.cfi_startproc
 831              		@ args = 0, pretend = 0, frame = 16
 832              		@ frame_needed = 0, uses_anonymous_args = 0
  74:RM-38D.cpp    **** 	cc.id = ControlChangeMsg::ID::VOICE_SEQUENCE;
 833              		.loc 17 74 2 view .LVU170
  75:RM-38D.cpp    **** 	cc.type = ControlChangeMsg::TYPE::GET;
 834              		.loc 17 75 2 view .LVU171
  73:RM-38D.cpp    **** 	ControlChangeMsg cc;
 835              		.loc 17 73 51 is_stmt 0 view .LVU172
 836 0000 1FB5     		push	{r0, r1, r2, r3, r4, lr}
ARM GAS  /var/folders/z5/_7t90xy14zq1swjhncg0p5z00000gn/T//ccqpyGtJ.s 			page 49


 837              		.cfi_def_cfa_offset 24
 838              		.cfi_offset 14, -4
  75:RM-38D.cpp    **** 	cc.type = ControlChangeMsg::TYPE::GET;
 839              		.loc 17 75 8 view .LVU173
 840 0002 0523     		movs	r3, #5
  77:RM-38D.cpp    **** 	cc.data[1] = sequence;		
 841              		.loc 17 77 13 view .LVU174
 842 0004 8DF80600 		strb	r0, [sp, #6]
  78:RM-38D.cpp    **** 	controlChangeBuffer.Write(cc);
 843              		.loc 17 78 13 view .LVU175
 844 0008 8DF80710 		strb	r1, [sp, #7]
  75:RM-38D.cpp    **** 	cc.type = ControlChangeMsg::TYPE::GET;
 845              		.loc 17 75 8 view .LVU176
 846 000c 8DF80430 		strb	r3, [sp, #4]
  76:RM-38D.cpp    **** 	cc.data[0] = voice;	
 847              		.loc 17 76 2 is_stmt 1 view .LVU177
  76:RM-38D.cpp    **** 	cc.data[0] = voice;	
 848              		.loc 17 76 10 is_stmt 0 view .LVU178
 849 0010 0123     		movs	r3, #1
  79:RM-38D.cpp    **** }
 850              		.loc 17 79 27 view .LVU179
 851 0012 0548     		ldr	r0, .L33
 852              	.LVL54:
  76:RM-38D.cpp    **** 	cc.data[0] = voice;	
 853              		.loc 17 76 10 view .LVU180
 854 0014 8DF80530 		strb	r3, [sp, #5]
  77:RM-38D.cpp    **** 	cc.data[1] = sequence;		
 855              		.loc 17 77 2 is_stmt 1 view .LVU181
  78:RM-38D.cpp    **** 	controlChangeBuffer.Write(cc);
 856              		.loc 17 78 2 view .LVU182
  79:RM-38D.cpp    **** }
 857              		.loc 17 79 2 view .LVU183
  79:RM-38D.cpp    **** }
 858              		.loc 17 79 27 is_stmt 0 view .LVU184
 859 0018 04AB     		add	r3, sp, #16
 860 001a 13E90E00 		ldmdb	r3, {r1, r2, r3}
 861              	.LVL55:
  79:RM-38D.cpp    **** }
 862              		.loc 17 79 27 view .LVU185
 863 001e FFF7FEFF 		bl	_ZN5daisy10RingBufferI16ControlChangeMsgLj32EE5WriteES1_
 864              	.LVL56:
  80:RM-38D.cpp    **** 
 865              		.loc 17 80 1 view .LVU186
 866 0022 05B0     		add	sp, sp, #20
 867              		.cfi_def_cfa_offset 4
 868              		@ sp needed
 869 0024 5DF804FB 		ldr	pc, [sp], #4
 870              	.LVL57:
 871              	.L34:
  80:RM-38D.cpp    **** 
 872              		.loc 17 80 1 view .LVU187
 873              		.align	2
 874              	.L33:
 875 0028 00000000 		.word	.LANCHOR1
 876              		.cfi_endproc
 877              	.LFE4916:
 879              		.section	.text._Z19GetGlobalParametersv,"ax",%progbits
ARM GAS  /var/folders/z5/_7t90xy14zq1swjhncg0p5z00000gn/T//ccqpyGtJ.s 			page 50


 880              		.align	1
 881              		.global	_Z19GetGlobalParametersv
 882              		.syntax unified
 883              		.thumb
 884              		.thumb_func
 886              	_Z19GetGlobalParametersv:
 887              	.LFB4917:
  83:RM-38D.cpp    **** 	ControlChangeMsg cc;
 888              		.loc 17 83 28 is_stmt 1 view -0
 889              		.cfi_startproc
 890              		@ args = 0, pretend = 0, frame = 16
 891              		@ frame_needed = 0, uses_anonymous_args = 0
  84:RM-38D.cpp    **** 	cc.id = ControlChangeMsg::ID::GLOBAL;
 892              		.loc 17 84 2 view .LVU189
  85:RM-38D.cpp    **** 	cc.type = ControlChangeMsg::TYPE::GET;	
 893              		.loc 17 85 2 view .LVU190
  83:RM-38D.cpp    **** 	ControlChangeMsg cc;
 894              		.loc 17 83 28 is_stmt 0 view .LVU191
 895 0000 1FB5     		push	{r0, r1, r2, r3, r4, lr}
 896              		.cfi_def_cfa_offset 24
 897              		.cfi_offset 14, -4
  85:RM-38D.cpp    **** 	cc.type = ControlChangeMsg::TYPE::GET;	
 898              		.loc 17 85 8 view .LVU192
 899 0002 0023     		movs	r3, #0
  87:RM-38D.cpp    **** }
 900              		.loc 17 87 27 view .LVU193
 901 0004 0648     		ldr	r0, .L36
  85:RM-38D.cpp    **** 	cc.type = ControlChangeMsg::TYPE::GET;	
 902              		.loc 17 85 8 view .LVU194
 903 0006 8DF80430 		strb	r3, [sp, #4]
  86:RM-38D.cpp    **** 	controlChangeBuffer.Write(cc);
 904              		.loc 17 86 2 is_stmt 1 view .LVU195
  86:RM-38D.cpp    **** 	controlChangeBuffer.Write(cc);
 905              		.loc 17 86 10 is_stmt 0 view .LVU196
 906 000a 0123     		movs	r3, #1
 907 000c 8DF80530 		strb	r3, [sp, #5]
  87:RM-38D.cpp    **** }
 908              		.loc 17 87 2 is_stmt 1 view .LVU197
  87:RM-38D.cpp    **** }
 909              		.loc 17 87 27 is_stmt 0 view .LVU198
 910 0010 04AB     		add	r3, sp, #16
 911 0012 13E90E00 		ldmdb	r3, {r1, r2, r3}
 912 0016 FFF7FEFF 		bl	_ZN5daisy10RingBufferI16ControlChangeMsgLj32EE5WriteES1_
 913              	.LVL58:
  88:RM-38D.cpp    **** 
 914              		.loc 17 88 1 view .LVU199
 915 001a 05B0     		add	sp, sp, #20
 916              		.cfi_def_cfa_offset 4
 917              		@ sp needed
 918 001c 5DF804FB 		ldr	pc, [sp], #4
 919              	.L37:
 920              		.align	2
 921              	.L36:
 922 0020 00000000 		.word	.LANCHOR1
 923              		.cfi_endproc
 924              	.LFE4917:
 926              		.section	.text._Z16IncrementControlhha,"ax",%progbits
ARM GAS  /var/folders/z5/_7t90xy14zq1swjhncg0p5z00000gn/T//ccqpyGtJ.s 			page 51


 927              		.align	1
 928              		.global	_Z16IncrementControlhha
 929              		.syntax unified
 930              		.thumb
 931              		.thumb_func
 933              	_Z16IncrementControlhha:
 934              	.LVL59:
 935              	.LFB4918:
  90:RM-38D.cpp    **** 	ControlChangeMsg cc;
 936              		.loc 17 90 66 is_stmt 1 view -0
 937              		.cfi_startproc
 938              		@ args = 0, pretend = 0, frame = 16
 939              		@ frame_needed = 0, uses_anonymous_args = 0
  91:RM-38D.cpp    **** 	cc.id = control;
 940              		.loc 17 91 2 view .LVU201
  92:RM-38D.cpp    **** 	if (inc < 0) cc.type = ControlChangeMsg::TYPE::DECREMENT;
 941              		.loc 17 92 2 view .LVU202
  93:RM-38D.cpp    **** 	else if (inc > 0) cc.type = ControlChangeMsg::TYPE::INCREMENT;
 942              		.loc 17 93 2 is_stmt 0 view .LVU203
 943 0000 002A     		cmp	r2, #0
  90:RM-38D.cpp    **** 	ControlChangeMsg cc;
 944              		.loc 17 90 66 view .LVU204
 945 0002 1FB5     		push	{r0, r1, r2, r3, r4, lr}
 946              		.cfi_def_cfa_offset 24
 947              		.cfi_offset 14, -4
  92:RM-38D.cpp    **** 	if (inc < 0) cc.type = ControlChangeMsg::TYPE::DECREMENT;
 948              		.loc 17 92 8 view .LVU205
 949 0004 8DF80410 		strb	r1, [sp, #4]
  93:RM-38D.cpp    **** 	else if (inc > 0) cc.type = ControlChangeMsg::TYPE::INCREMENT;
 950              		.loc 17 93 2 is_stmt 1 view .LVU206
 951 0008 0DDA     		bge	.L39
  93:RM-38D.cpp    **** 	else if (inc > 0) cc.type = ControlChangeMsg::TYPE::INCREMENT;
 952              		.loc 17 93 15 discriminator 1 view .LVU207
  93:RM-38D.cpp    **** 	else if (inc > 0) cc.type = ControlChangeMsg::TYPE::INCREMENT;
 953              		.loc 17 93 23 is_stmt 0 discriminator 1 view .LVU208
 954 000a 0323     		movs	r3, #3
 955              	.L43:
  94:RM-38D.cpp    **** 	else return;
 956              		.loc 17 94 28 discriminator 1 view .LVU209
 957 000c 8DF80530 		strb	r3, [sp, #5]
  96:RM-38D.cpp    **** 
 958              		.loc 17 96 2 is_stmt 1 discriminator 1 view .LVU210
  98:RM-38D.cpp    **** }
 959              		.loc 17 98 27 is_stmt 0 discriminator 1 view .LVU211
 960 0010 04AB     		add	r3, sp, #16
  96:RM-38D.cpp    **** 
 961              		.loc 17 96 13 discriminator 1 view .LVU212
 962 0012 8DF80600 		strb	r0, [sp, #6]
  98:RM-38D.cpp    **** }
 963              		.loc 17 98 2 is_stmt 1 discriminator 1 view .LVU213
  98:RM-38D.cpp    **** }
 964              		.loc 17 98 27 is_stmt 0 discriminator 1 view .LVU214
 965 0016 0548     		ldr	r0, .L44
 966              	.LVL60:
  98:RM-38D.cpp    **** }
 967              		.loc 17 98 27 discriminator 1 view .LVU215
 968 0018 13E90E00 		ldmdb	r3, {r1, r2, r3}
ARM GAS  /var/folders/z5/_7t90xy14zq1swjhncg0p5z00000gn/T//ccqpyGtJ.s 			page 52


 969              	.LVL61:
  98:RM-38D.cpp    **** }
 970              		.loc 17 98 27 discriminator 1 view .LVU216
 971 001c FFF7FEFF 		bl	_ZN5daisy10RingBufferI16ControlChangeMsgLj32EE5WriteES1_
 972              	.LVL62:
 973              	.L38:
  99:RM-38D.cpp    **** 
 974              		.loc 17 99 1 view .LVU217
 975 0020 05B0     		add	sp, sp, #20
 976              		.cfi_remember_state
 977              		.cfi_def_cfa_offset 4
 978              		@ sp needed
 979 0022 5DF804FB 		ldr	pc, [sp], #4
 980              	.LVL63:
 981              	.L39:
 982              		.cfi_restore_state
  94:RM-38D.cpp    **** 	else return;
 983              		.loc 17 94 7 is_stmt 1 view .LVU218
 984 0026 FBD0     		beq	.L38
  94:RM-38D.cpp    **** 	else return;
 985              		.loc 17 94 20 discriminator 1 view .LVU219
  94:RM-38D.cpp    **** 	else return;
 986              		.loc 17 94 28 is_stmt 0 discriminator 1 view .LVU220
 987 0028 0223     		movs	r3, #2
 988 002a EFE7     		b	.L43
 989              	.L45:
 990              		.align	2
 991              	.L44:
 992 002c 00000000 		.word	.LANCHOR1
 993              		.cfi_endproc
 994              	.LFE4918:
 996              		.section	.text._Z16IncrementControlha,"ax",%progbits
 997              		.align	1
 998              		.global	_Z16IncrementControlha
 999              		.syntax unified
 1000              		.thumb
 1001              		.thumb_func
 1003              	_Z16IncrementControlha:
 1004              	.LVL64:
 1005              	.LFB4919:
 101:RM-38D.cpp    **** 	ControlChangeMsg cc;
 1006              		.loc 17 101 51 is_stmt 1 view -0
 1007              		.cfi_startproc
 1008              		@ args = 0, pretend = 0, frame = 16
 1009              		@ frame_needed = 0, uses_anonymous_args = 0
 102:RM-38D.cpp    **** 	cc.id = control;
 1010              		.loc 17 102 2 view .LVU222
 103:RM-38D.cpp    **** 	if (inc < 0) cc.type = ControlChangeMsg::TYPE::DECREMENT;
 1011              		.loc 17 103 2 view .LVU223
 104:RM-38D.cpp    **** 	else if (inc > 0) cc.type = ControlChangeMsg::TYPE::INCREMENT;
 1012              		.loc 17 104 2 is_stmt 0 view .LVU224
 1013 0000 0029     		cmp	r1, #0
 101:RM-38D.cpp    **** 	ControlChangeMsg cc;
 1014              		.loc 17 101 51 view .LVU225
 1015 0002 1FB5     		push	{r0, r1, r2, r3, r4, lr}
 1016              		.cfi_def_cfa_offset 24
 1017              		.cfi_offset 14, -4
ARM GAS  /var/folders/z5/_7t90xy14zq1swjhncg0p5z00000gn/T//ccqpyGtJ.s 			page 53


 103:RM-38D.cpp    **** 	if (inc < 0) cc.type = ControlChangeMsg::TYPE::DECREMENT;
 1018              		.loc 17 103 8 view .LVU226
 1019 0004 8DF80400 		strb	r0, [sp, #4]
 104:RM-38D.cpp    **** 	else if (inc > 0) cc.type = ControlChangeMsg::TYPE::INCREMENT;
 1020              		.loc 17 104 2 is_stmt 1 view .LVU227
 1021 0008 0BDA     		bge	.L47
 104:RM-38D.cpp    **** 	else if (inc > 0) cc.type = ControlChangeMsg::TYPE::INCREMENT;
 1022              		.loc 17 104 15 discriminator 1 view .LVU228
 104:RM-38D.cpp    **** 	else if (inc > 0) cc.type = ControlChangeMsg::TYPE::INCREMENT;
 1023              		.loc 17 104 23 is_stmt 0 discriminator 1 view .LVU229
 1024 000a 0323     		movs	r3, #3
 1025              	.L51:
 105:RM-38D.cpp    **** 	else return;
 1026              		.loc 17 105 28 discriminator 1 view .LVU230
 1027 000c 8DF80530 		strb	r3, [sp, #5]
 108:RM-38D.cpp    **** }
 1028              		.loc 17 108 2 is_stmt 1 discriminator 1 view .LVU231
 108:RM-38D.cpp    **** }
 1029              		.loc 17 108 27 is_stmt 0 discriminator 1 view .LVU232
 1030 0010 04AB     		add	r3, sp, #16
 1031 0012 0548     		ldr	r0, .L52
 1032              	.LVL65:
 108:RM-38D.cpp    **** }
 1033              		.loc 17 108 27 discriminator 1 view .LVU233
 1034 0014 13E90E00 		ldmdb	r3, {r1, r2, r3}
 1035              	.LVL66:
 108:RM-38D.cpp    **** }
 1036              		.loc 17 108 27 discriminator 1 view .LVU234
 1037 0018 FFF7FEFF 		bl	_ZN5daisy10RingBufferI16ControlChangeMsgLj32EE5WriteES1_
 1038              	.LVL67:
 1039              	.L46:
 109:RM-38D.cpp    **** 
 1040              		.loc 17 109 1 view .LVU235
 1041 001c 05B0     		add	sp, sp, #20
 1042              		.cfi_remember_state
 1043              		.cfi_def_cfa_offset 4
 1044              		@ sp needed
 1045 001e 5DF804FB 		ldr	pc, [sp], #4
 1046              	.LVL68:
 1047              	.L47:
 1048              		.cfi_restore_state
 105:RM-38D.cpp    **** 	else return;
 1049              		.loc 17 105 7 is_stmt 1 view .LVU236
 1050 0022 FBD0     		beq	.L46
 105:RM-38D.cpp    **** 	else return;
 1051              		.loc 17 105 20 discriminator 1 view .LVU237
 105:RM-38D.cpp    **** 	else return;
 1052              		.loc 17 105 28 is_stmt 0 discriminator 1 view .LVU238
 1053 0024 0223     		movs	r3, #2
 1054 0026 F1E7     		b	.L51
 1055              	.L53:
 1056              		.align	2
 1057              	.L52:
 1058 0028 00000000 		.word	.LANCHOR1
 1059              		.cfi_endproc
 1060              	.LFE4919:
 1062              		.section	.text._Z13ToggleControlh,"ax",%progbits
ARM GAS  /var/folders/z5/_7t90xy14zq1swjhncg0p5z00000gn/T//ccqpyGtJ.s 			page 54


 1063              		.align	1
 1064              		.global	_Z13ToggleControlh
 1065              		.syntax unified
 1066              		.thumb
 1067              		.thumb_func
 1069              	_Z13ToggleControlh:
 1070              	.LVL69:
 1071              	.LFB4920:
 111:RM-38D.cpp    **** 	ControlChangeMsg cc;
 1072              		.loc 17 111 37 is_stmt 1 view -0
 1073              		.cfi_startproc
 1074              		@ args = 0, pretend = 0, frame = 16
 1075              		@ frame_needed = 0, uses_anonymous_args = 0
 112:RM-38D.cpp    **** 	cc.id = control;
 1076              		.loc 17 112 2 view .LVU240
 113:RM-38D.cpp    **** 	cc.type = ControlChangeMsg::TYPE::TOGGLE;
 1077              		.loc 17 113 2 view .LVU241
 111:RM-38D.cpp    **** 	ControlChangeMsg cc;
 1078              		.loc 17 111 37 is_stmt 0 view .LVU242
 1079 0000 1FB5     		push	{r0, r1, r2, r3, r4, lr}
 1080              		.cfi_def_cfa_offset 24
 1081              		.cfi_offset 14, -4
 114:RM-38D.cpp    **** 	
 1082              		.loc 17 114 10 view .LVU243
 1083 0002 0423     		movs	r3, #4
 113:RM-38D.cpp    **** 	cc.type = ControlChangeMsg::TYPE::TOGGLE;
 1084              		.loc 17 113 8 view .LVU244
 1085 0004 8DF80400 		strb	r0, [sp, #4]
 114:RM-38D.cpp    **** 	
 1086              		.loc 17 114 2 is_stmt 1 view .LVU245
 116:RM-38D.cpp    **** }
 1087              		.loc 17 116 27 is_stmt 0 view .LVU246
 1088 0008 0548     		ldr	r0, .L55
 1089              	.LVL70:
 114:RM-38D.cpp    **** 	
 1090              		.loc 17 114 10 view .LVU247
 1091 000a 8DF80530 		strb	r3, [sp, #5]
 116:RM-38D.cpp    **** }
 1092              		.loc 17 116 2 is_stmt 1 view .LVU248
 116:RM-38D.cpp    **** }
 1093              		.loc 17 116 27 is_stmt 0 view .LVU249
 1094 000e 04AB     		add	r3, sp, #16
 1095 0010 13E90E00 		ldmdb	r3, {r1, r2, r3}
 1096 0014 FFF7FEFF 		bl	_ZN5daisy10RingBufferI16ControlChangeMsgLj32EE5WriteES1_
 1097              	.LVL71:
 117:RM-38D.cpp    **** 
 1098              		.loc 17 117 1 view .LVU250
 1099 0018 05B0     		add	sp, sp, #20
 1100              		.cfi_def_cfa_offset 4
 1101              		@ sp needed
 1102 001a 5DF804FB 		ldr	pc, [sp], #4
 1103              	.LVL72:
 1104              	.L56:
 117:RM-38D.cpp    **** 
 1105              		.loc 17 117 1 view .LVU251
 1106 001e 00BF     		.align	2
 1107              	.L55:
ARM GAS  /var/folders/z5/_7t90xy14zq1swjhncg0p5z00000gn/T//ccqpyGtJ.s 			page 55


 1108 0020 00000000 		.word	.LANCHOR1
 1109              		.cfi_endproc
 1110              	.LFE4920:
 1112              		.section	.text._Z18ToggleSequenceStephhh,"ax",%progbits
 1113              		.align	1
 1114              		.global	_Z18ToggleSequenceStephhh
 1115              		.syntax unified
 1116              		.thumb
 1117              		.thumb_func
 1119              	_Z18ToggleSequenceStephhh:
 1120              	.LVL73:
 1121              	.LFB4921:
 119:RM-38D.cpp    **** 	ControlChangeMsg cc;
 1122              		.loc 17 119 72 is_stmt 1 view -0
 1123              		.cfi_startproc
 1124              		@ args = 0, pretend = 0, frame = 16
 1125              		@ frame_needed = 0, uses_anonymous_args = 0
 120:RM-38D.cpp    **** 	cc.id = ControlChangeMsg::ID::VOICE_SEQUENCE;
 1126              		.loc 17 120 2 view .LVU253
 121:RM-38D.cpp    **** 	cc.type = ControlChangeMsg::TYPE::TOGGLE;
 1127              		.loc 17 121 2 view .LVU254
 119:RM-38D.cpp    **** 	ControlChangeMsg cc;
 1128              		.loc 17 119 72 is_stmt 0 view .LVU255
 1129 0000 1FB5     		push	{r0, r1, r2, r3, r4, lr}
 1130              		.cfi_def_cfa_offset 24
 1131              		.cfi_offset 14, -4
 121:RM-38D.cpp    **** 	cc.type = ControlChangeMsg::TYPE::TOGGLE;
 1132              		.loc 17 121 8 view .LVU256
 1133 0002 0523     		movs	r3, #5
 123:RM-38D.cpp    **** 	cc.data[1] = sequence;
 1134              		.loc 17 123 13 view .LVU257
 1135 0004 8DF80600 		strb	r0, [sp, #6]
 124:RM-38D.cpp    **** 	cc.data[2] = step;
 1136              		.loc 17 124 13 view .LVU258
 1137 0008 8DF80710 		strb	r1, [sp, #7]
 121:RM-38D.cpp    **** 	cc.type = ControlChangeMsg::TYPE::TOGGLE;
 1138              		.loc 17 121 8 view .LVU259
 1139 000c 8DF80430 		strb	r3, [sp, #4]
 122:RM-38D.cpp    **** 	cc.data[0] = voice;
 1140              		.loc 17 122 2 is_stmt 1 view .LVU260
 122:RM-38D.cpp    **** 	cc.data[0] = voice;
 1141              		.loc 17 122 10 is_stmt 0 view .LVU261
 1142 0010 0423     		movs	r3, #4
 125:RM-38D.cpp    **** 	controlChangeBuffer.Write(cc);		
 1143              		.loc 17 125 13 view .LVU262
 1144 0012 8DF80820 		strb	r2, [sp, #8]
 122:RM-38D.cpp    **** 	cc.data[0] = voice;
 1145              		.loc 17 122 10 view .LVU263
 1146 0016 8DF80530 		strb	r3, [sp, #5]
 123:RM-38D.cpp    **** 	cc.data[1] = sequence;
 1147              		.loc 17 123 2 is_stmt 1 view .LVU264
 124:RM-38D.cpp    **** 	cc.data[2] = step;
 1148              		.loc 17 124 2 view .LVU265
 125:RM-38D.cpp    **** 	controlChangeBuffer.Write(cc);		
 1149              		.loc 17 125 2 view .LVU266
 126:RM-38D.cpp    **** }
 1150              		.loc 17 126 2 view .LVU267
ARM GAS  /var/folders/z5/_7t90xy14zq1swjhncg0p5z00000gn/T//ccqpyGtJ.s 			page 56


 126:RM-38D.cpp    **** }
 1151              		.loc 17 126 27 is_stmt 0 view .LVU268
 1152 001a 04AB     		add	r3, sp, #16
 1153 001c 0348     		ldr	r0, .L58
 1154              	.LVL74:
 126:RM-38D.cpp    **** }
 1155              		.loc 17 126 27 view .LVU269
 1156 001e 13E90E00 		ldmdb	r3, {r1, r2, r3}
 1157              	.LVL75:
 126:RM-38D.cpp    **** }
 1158              		.loc 17 126 27 view .LVU270
 1159 0022 FFF7FEFF 		bl	_ZN5daisy10RingBufferI16ControlChangeMsgLj32EE5WriteES1_
 1160              	.LVL76:
 127:RM-38D.cpp    **** 
 1161              		.loc 17 127 1 view .LVU271
 1162 0026 05B0     		add	sp, sp, #20
 1163              		.cfi_def_cfa_offset 4
 1164              		@ sp needed
 1165 0028 5DF804FB 		ldr	pc, [sp], #4
 1166              	.LVL77:
 1167              	.L59:
 127:RM-38D.cpp    **** 
 1168              		.loc 17 127 1 view .LVU272
 1169              		.align	2
 1170              	.L58:
 1171 002c 00000000 		.word	.LANCHOR1
 1172              		.cfi_endproc
 1173              	.LFE4921:
 1175              		.section	.text._Z15SendSampleVoicefa,"ax",%progbits
 1176              		.align	1
 1177              		.global	_Z15SendSampleVoicefa
 1178              		.syntax unified
 1179              		.thumb
 1180              		.thumb_func
 1182              	_Z15SendSampleVoicefa:
 1183              	.LVL78:
 1184              	.LFB4933:
 330:RM-38D.cpp    **** 	SampleVoiceParameters voice =  {.pan = pan, .gain = gain};
 1185              		.loc 17 330 46 is_stmt 1 view -0
 1186              		.cfi_startproc
 1187              		@ args = 0, pretend = 0, frame = 16
 1188              		@ frame_needed = 0, uses_anonymous_args = 0
 331:RM-38D.cpp    **** 	ControlChangeMsg cc;
 1189              		.loc 17 331 2 view .LVU274
 332:RM-38D.cpp    **** 	cc.id = ControlChangeMsg::ID::SAMPLE_VOICE;
 1190              		.loc 17 332 2 view .LVU275
 333:RM-38D.cpp    **** 	cc.type = ControlChangeMsg::TYPE::GET;
 1191              		.loc 17 333 2 view .LVU276
 330:RM-38D.cpp    **** 	SampleVoiceParameters voice =  {.pan = pan, .gain = gain};
 1192              		.loc 17 330 46 is_stmt 0 view .LVU277
 1193 0000 1FB5     		push	{r0, r1, r2, r3, r4, lr}
 1194              		.cfi_def_cfa_offset 24
 1195              		.cfi_offset 14, -4
 333:RM-38D.cpp    **** 	cc.type = ControlChangeMsg::TYPE::GET;
 1196              		.loc 17 333 8 view .LVU278
 1197 0002 0423     		movs	r3, #4
 335:RM-38D.cpp    **** 	controlChangedBuffer.Write(cc);	
ARM GAS  /var/folders/z5/_7t90xy14zq1swjhncg0p5z00000gn/T//ccqpyGtJ.s 			page 57


 1198              		.loc 17 335 8 view .LVU279
 1199 0004 8DF80600 		strb	r0, [sp, #6]
 336:RM-38D.cpp    **** }
 1200              		.loc 17 336 28 view .LVU280
 1201 0008 0848     		ldr	r0, .L61
 1202              	.LVL79:
 333:RM-38D.cpp    **** 	cc.type = ControlChangeMsg::TYPE::GET;
 1203              		.loc 17 333 8 view .LVU281
 1204 000a 8DF80430 		strb	r3, [sp, #4]
 334:RM-38D.cpp    **** 	memcpy(cc.data, &voice, sizeof(voice));
 1205              		.loc 17 334 2 is_stmt 1 view .LVU282
 334:RM-38D.cpp    **** 	memcpy(cc.data, &voice, sizeof(voice));
 1206              		.loc 17 334 10 is_stmt 0 view .LVU283
 1207 000e 0123     		movs	r3, #1
 1208 0010 8DF80530 		strb	r3, [sp, #5]
 335:RM-38D.cpp    **** 	controlChangedBuffer.Write(cc);	
 1209              		.loc 17 335 2 is_stmt 1 view .LVU284
 335:RM-38D.cpp    **** 	controlChangedBuffer.Write(cc);	
 1210              		.loc 17 335 8 is_stmt 0 view .LVU285
 1211 0014 10EE103A 		vmov	r3, s0
 1212 0018 CDF80A30 		str	r3, [sp, #10]	@ unaligned
 336:RM-38D.cpp    **** }
 1213              		.loc 17 336 2 is_stmt 1 view .LVU286
 336:RM-38D.cpp    **** }
 1214              		.loc 17 336 28 is_stmt 0 view .LVU287
 1215 001c 04AB     		add	r3, sp, #16
 1216 001e 13E90E00 		ldmdb	r3, {r1, r2, r3}
 1217 0022 FFF7FEFF 		bl	_ZN5daisy10RingBufferI16ControlChangeMsgLj32EE5WriteES1_
 1218              	.LVL80:
 337:RM-38D.cpp    **** 
 1219              		.loc 17 337 1 view .LVU288
 1220 0026 05B0     		add	sp, sp, #20
 1221              		.cfi_def_cfa_offset 4
 1222              		@ sp needed
 1223 0028 5DF804FB 		ldr	pc, [sp], #4
 1224              	.LVL81:
 1225              	.L62:
 337:RM-38D.cpp    **** 
 1226              		.loc 17 337 1 view .LVU289
 1227              		.align	2
 1228              	.L61:
 1229 002c 00000000 		.word	.LANCHOR2
 1230              		.cfi_endproc
 1231              	.LFE4933:
 1233              		.section	.text._Z22SendSequenceParameters18SequenceParameters,"ax",%progbits
 1234              		.align	1
 1235              		.global	_Z22SendSequenceParameters18SequenceParameters
 1236              		.syntax unified
 1237              		.thumb
 1238              		.thumb_func
 1240              	_Z22SendSequenceParameters18SequenceParameters:
 1241              	.LVL82:
 1242              	.LFB4934:
 339:RM-38D.cpp    **** 	ControlChangeMsg cc;
 1243              		.loc 17 339 58 is_stmt 1 view -0
 1244              		.cfi_startproc
 1245              		@ args = 0, pretend = 0, frame = 16
ARM GAS  /var/folders/z5/_7t90xy14zq1swjhncg0p5z00000gn/T//ccqpyGtJ.s 			page 58


 1246              		@ frame_needed = 0, uses_anonymous_args = 0
 340:RM-38D.cpp    **** 	cc.id = ControlChangeMsg::ID::VOICE_SEQUENCE;
 1247              		.loc 17 340 2 view .LVU291
 341:RM-38D.cpp    **** 	cc.type = ControlChangeMsg::TYPE::GET;
 1248              		.loc 17 341 2 view .LVU292
 339:RM-38D.cpp    **** 	ControlChangeMsg cc;
 1249              		.loc 17 339 58 is_stmt 0 view .LVU293
 1250 0000 1FB5     		push	{r0, r1, r2, r3, r4, lr}
 1251              		.cfi_def_cfa_offset 24
 1252              		.cfi_offset 14, -4
 341:RM-38D.cpp    **** 	cc.type = ControlChangeMsg::TYPE::GET;
 1253              		.loc 17 341 8 view .LVU294
 1254 0002 0523     		movs	r3, #5
 343:RM-38D.cpp    **** 	controlChangedBuffer.Write(cc);	
 1255              		.loc 17 343 8 view .LVU295
 1256 0004 ADF80600 		strh	r0, [sp, #6]	@ movhi
 344:RM-38D.cpp    **** }
 1257              		.loc 17 344 28 view .LVU296
 1258 0008 0648     		ldr	r0, .L64
 1259              	.LVL83:
 341:RM-38D.cpp    **** 	cc.type = ControlChangeMsg::TYPE::GET;
 1260              		.loc 17 341 8 view .LVU297
 1261 000a 8DF80430 		strb	r3, [sp, #4]
 342:RM-38D.cpp    **** 	memcpy(cc.data, &sequence, sizeof(sequence));
 1262              		.loc 17 342 2 is_stmt 1 view .LVU298
 342:RM-38D.cpp    **** 	memcpy(cc.data, &sequence, sizeof(sequence));
 1263              		.loc 17 342 10 is_stmt 0 view .LVU299
 1264 000e 0123     		movs	r3, #1
 1265 0010 8DF80530 		strb	r3, [sp, #5]
 343:RM-38D.cpp    **** 	controlChangedBuffer.Write(cc);	
 1266              		.loc 17 343 2 is_stmt 1 view .LVU300
 344:RM-38D.cpp    **** }
 1267              		.loc 17 344 2 view .LVU301
 344:RM-38D.cpp    **** }
 1268              		.loc 17 344 28 is_stmt 0 view .LVU302
 1269 0014 04AB     		add	r3, sp, #16
 1270 0016 13E90E00 		ldmdb	r3, {r1, r2, r3}
 1271 001a FFF7FEFF 		bl	_ZN5daisy10RingBufferI16ControlChangeMsgLj32EE5WriteES1_
 1272              	.LVL84:
 345:RM-38D.cpp    **** 
 1273              		.loc 17 345 1 view .LVU303
 1274 001e 05B0     		add	sp, sp, #20
 1275              		.cfi_def_cfa_offset 4
 1276              		@ sp needed
 1277 0020 5DF804FB 		ldr	pc, [sp], #4
 1278              	.L65:
 1279              		.align	2
 1280              	.L64:
 1281 0024 00000000 		.word	.LANCHOR2
 1282              		.cfi_endproc
 1283              	.LFE4934:
 1285              		.section	.text._Z20SendGlobalParameters16GlobalParameters,"ax",%progbits
 1286              		.align	1
 1287              		.global	_Z20SendGlobalParameters16GlobalParameters
 1288              		.syntax unified
 1289              		.thumb
 1290              		.thumb_func
ARM GAS  /var/folders/z5/_7t90xy14zq1swjhncg0p5z00000gn/T//ccqpyGtJ.s 			page 59


 1292              	_Z20SendGlobalParameters16GlobalParameters:
 1293              	.LVL85:
 1294              	.LFB4935:
 347:RM-38D.cpp    **** 	ControlChangeMsg cc;
 1295              		.loc 17 347 52 is_stmt 1 view -0
 1296              		.cfi_startproc
 1297              		@ args = 0, pretend = 0, frame = 16
 1298              		@ frame_needed = 0, uses_anonymous_args = 0
 348:RM-38D.cpp    **** 	cc.id = ControlChangeMsg::ID::GLOBAL;
 1299              		.loc 17 348 2 view .LVU305
 349:RM-38D.cpp    **** 	cc.type = ControlChangeMsg::TYPE::GET;
 1300              		.loc 17 349 2 view .LVU306
 347:RM-38D.cpp    **** 	ControlChangeMsg cc;
 1301              		.loc 17 347 52 is_stmt 0 view .LVU307
 1302 0000 1FB5     		push	{r0, r1, r2, r3, r4, lr}
 1303              		.cfi_def_cfa_offset 24
 1304              		.cfi_offset 14, -4
 349:RM-38D.cpp    **** 	cc.type = ControlChangeMsg::TYPE::GET;
 1305              		.loc 17 349 8 view .LVU308
 1306 0002 0023     		movs	r3, #0
 352:RM-38D.cpp    **** }
 1307              		.loc 17 352 28 view .LVU309
 1308 0004 0848     		ldr	r0, .L67
 349:RM-38D.cpp    **** 	cc.type = ControlChangeMsg::TYPE::GET;
 1309              		.loc 17 349 8 view .LVU310
 1310 0006 8DF80430 		strb	r3, [sp, #4]
 350:RM-38D.cpp    **** 	memcpy(cc.data, &global, sizeof(global));
 1311              		.loc 17 350 2 is_stmt 1 view .LVU311
 350:RM-38D.cpp    **** 	memcpy(cc.data, &global, sizeof(global));
 1312              		.loc 17 350 10 is_stmt 0 view .LVU312
 1313 000a 0123     		movs	r3, #1
 1314 000c 8DF80530 		strb	r3, [sp, #5]
 351:RM-38D.cpp    **** 	controlChangedBuffer.Write(cc);	
 1315              		.loc 17 351 2 is_stmt 1 view .LVU313
 351:RM-38D.cpp    **** 	controlChangedBuffer.Write(cc);	
 1316              		.loc 17 351 8 is_stmt 0 view .LVU314
 1317 0010 10EE103A 		vmov	r3, s0	@ int
 1318 0014 CDF80630 		str	r3, [sp, #6]	@ unaligned
 352:RM-38D.cpp    **** }
 1319              		.loc 17 352 2 is_stmt 1 view .LVU315
 352:RM-38D.cpp    **** }
 1320              		.loc 17 352 28 is_stmt 0 view .LVU316
 1321 0018 04AB     		add	r3, sp, #16
 1322 001a 13E90E00 		ldmdb	r3, {r1, r2, r3}
 1323 001e FFF7FEFF 		bl	_ZN5daisy10RingBufferI16ControlChangeMsgLj32EE5WriteES1_
 1324              	.LVL86:
 353:RM-38D.cpp    **** 
 1325              		.loc 17 353 1 view .LVU317
 1326 0022 05B0     		add	sp, sp, #20
 1327              		.cfi_def_cfa_offset 4
 1328              		@ sp needed
 1329 0024 5DF804FB 		ldr	pc, [sp], #4
 1330              	.L68:
 1331              		.align	2
 1332              	.L67:
 1333 0028 00000000 		.word	.LANCHOR2
 1334              		.cfi_endproc
ARM GAS  /var/folders/z5/_7t90xy14zq1swjhncg0p5z00000gn/T//ccqpyGtJ.s 			page 60


 1335              	.LFE4935:
 1337              		.section	.text._ZN5daisy13SSD130xDriverILj128ELj64ENS_19SSD130xI2CTransportEE4FillEb,"axG",%progbi
 1338              		.align	1
 1339              		.weak	_ZN5daisy13SSD130xDriverILj128ELj64ENS_19SSD130xI2CTransportEE4FillEb
 1340              		.syntax unified
 1341              		.thumb
 1342              		.thumb_func
 1344              	_ZN5daisy13SSD130xDriverILj128ELj64ENS_19SSD130xI2CTransportEE4FillEb:
 1345              	.LVL87:
 1346              	.LFB5409:
  47:../../libDaisy//src/dev/oled_ssd130x.h **** 
  48:../../libDaisy//src/dev/oled_ssd130x.h ****     void SendData(uint8_t* buff, size_t size)
  49:../../libDaisy//src/dev/oled_ssd130x.h ****     {
  50:../../libDaisy//src/dev/oled_ssd130x.h ****         for(size_t i = 0; i < size; i++)
  51:../../libDaisy//src/dev/oled_ssd130x.h ****         {
  52:../../libDaisy//src/dev/oled_ssd130x.h ****             uint8_t buf[2] = {0X40, buff[i]};
  53:../../libDaisy//src/dev/oled_ssd130x.h ****             i2c_.TransmitBlocking(i2c_address_, buf, 2, 1000);
  54:../../libDaisy//src/dev/oled_ssd130x.h ****         }
  55:../../libDaisy//src/dev/oled_ssd130x.h ****     };
  56:../../libDaisy//src/dev/oled_ssd130x.h **** 
  57:../../libDaisy//src/dev/oled_ssd130x.h ****   private:
  58:../../libDaisy//src/dev/oled_ssd130x.h ****     daisy::I2CHandle i2c_;
  59:../../libDaisy//src/dev/oled_ssd130x.h ****     uint8_t          i2c_address_;
  60:../../libDaisy//src/dev/oled_ssd130x.h **** };
  61:../../libDaisy//src/dev/oled_ssd130x.h **** 
  62:../../libDaisy//src/dev/oled_ssd130x.h **** /**
  63:../../libDaisy//src/dev/oled_ssd130x.h ****  * 4 Wire SPI Transport for SSD1306 / SSD1309 OLED display devices
  64:../../libDaisy//src/dev/oled_ssd130x.h ****  */
  65:../../libDaisy//src/dev/oled_ssd130x.h **** class SSD130x4WireSpiTransport
  66:../../libDaisy//src/dev/oled_ssd130x.h **** {
  67:../../libDaisy//src/dev/oled_ssd130x.h ****   public:
  68:../../libDaisy//src/dev/oled_ssd130x.h ****     struct Config
  69:../../libDaisy//src/dev/oled_ssd130x.h ****     {
  70:../../libDaisy//src/dev/oled_ssd130x.h ****         Config()
  71:../../libDaisy//src/dev/oled_ssd130x.h ****         {
  72:../../libDaisy//src/dev/oled_ssd130x.h ****             // Initialize using defaults
  73:../../libDaisy//src/dev/oled_ssd130x.h ****             Defaults();
  74:../../libDaisy//src/dev/oled_ssd130x.h ****         }
  75:../../libDaisy//src/dev/oled_ssd130x.h ****         SpiHandle::Config spi_config;
  76:../../libDaisy//src/dev/oled_ssd130x.h ****         struct
  77:../../libDaisy//src/dev/oled_ssd130x.h ****         {
  78:../../libDaisy//src/dev/oled_ssd130x.h ****             dsy_gpio_pin dc;    /**< & */
  79:../../libDaisy//src/dev/oled_ssd130x.h ****             dsy_gpio_pin reset; /**< & */
  80:../../libDaisy//src/dev/oled_ssd130x.h ****         } pin_config;
  81:../../libDaisy//src/dev/oled_ssd130x.h ****         void Defaults()
  82:../../libDaisy//src/dev/oled_ssd130x.h ****         {
  83:../../libDaisy//src/dev/oled_ssd130x.h ****             // SPI peripheral config
  84:../../libDaisy//src/dev/oled_ssd130x.h ****             spi_config.periph = SpiHandle::Config::Peripheral::SPI_1;
  85:../../libDaisy//src/dev/oled_ssd130x.h ****             spi_config.mode   = SpiHandle::Config::Mode::MASTER;
  86:../../libDaisy//src/dev/oled_ssd130x.h ****             spi_config.direction
  87:../../libDaisy//src/dev/oled_ssd130x.h ****                 = SpiHandle::Config::Direction::TWO_LINES_TX_ONLY;
  88:../../libDaisy//src/dev/oled_ssd130x.h ****             spi_config.datasize       = 8;
  89:../../libDaisy//src/dev/oled_ssd130x.h ****             spi_config.clock_polarity = SpiHandle::Config::ClockPolarity::LOW;
  90:../../libDaisy//src/dev/oled_ssd130x.h ****             spi_config.clock_phase    = SpiHandle::Config::ClockPhase::ONE_EDGE;
  91:../../libDaisy//src/dev/oled_ssd130x.h ****             spi_config.nss            = SpiHandle::Config::NSS::HARD_OUTPUT;
  92:../../libDaisy//src/dev/oled_ssd130x.h ****             spi_config.baud_prescaler = SpiHandle::Config::BaudPrescaler::PS_8;
  93:../../libDaisy//src/dev/oled_ssd130x.h ****             // SPI pin config
ARM GAS  /var/folders/z5/_7t90xy14zq1swjhncg0p5z00000gn/T//ccqpyGtJ.s 			page 61


  94:../../libDaisy//src/dev/oled_ssd130x.h ****             spi_config.pin_config.sclk = {DSY_GPIOG, 11};
  95:../../libDaisy//src/dev/oled_ssd130x.h ****             spi_config.pin_config.miso = {DSY_GPIOX, 0};
  96:../../libDaisy//src/dev/oled_ssd130x.h ****             spi_config.pin_config.mosi = {DSY_GPIOB, 5};
  97:../../libDaisy//src/dev/oled_ssd130x.h ****             spi_config.pin_config.nss  = {DSY_GPIOG, 10};
  98:../../libDaisy//src/dev/oled_ssd130x.h ****             // SSD130x control pin config
  99:../../libDaisy//src/dev/oled_ssd130x.h ****             pin_config.dc    = {DSY_GPIOB, 4};
 100:../../libDaisy//src/dev/oled_ssd130x.h ****             pin_config.reset = {DSY_GPIOB, 15};
 101:../../libDaisy//src/dev/oled_ssd130x.h ****         }
 102:../../libDaisy//src/dev/oled_ssd130x.h ****     };
 103:../../libDaisy//src/dev/oled_ssd130x.h ****     void Init(const Config& config)
 104:../../libDaisy//src/dev/oled_ssd130x.h ****     {
 105:../../libDaisy//src/dev/oled_ssd130x.h ****         // Initialize both GPIO
 106:../../libDaisy//src/dev/oled_ssd130x.h ****         pin_dc_.mode = DSY_GPIO_MODE_OUTPUT_PP;
 107:../../libDaisy//src/dev/oled_ssd130x.h ****         pin_dc_.pin  = config.pin_config.dc;
 108:../../libDaisy//src/dev/oled_ssd130x.h ****         dsy_gpio_init(&pin_dc_);
 109:../../libDaisy//src/dev/oled_ssd130x.h ****         pin_reset_.mode = DSY_GPIO_MODE_OUTPUT_PP;
 110:../../libDaisy//src/dev/oled_ssd130x.h ****         pin_reset_.pin  = config.pin_config.reset;
 111:../../libDaisy//src/dev/oled_ssd130x.h ****         dsy_gpio_init(&pin_reset_);
 112:../../libDaisy//src/dev/oled_ssd130x.h **** 
 113:../../libDaisy//src/dev/oled_ssd130x.h ****         // Initialize SPI
 114:../../libDaisy//src/dev/oled_ssd130x.h ****         spi_.Init(config.spi_config);
 115:../../libDaisy//src/dev/oled_ssd130x.h **** 
 116:../../libDaisy//src/dev/oled_ssd130x.h ****         // Reset and Configure OLED.
 117:../../libDaisy//src/dev/oled_ssd130x.h ****         dsy_gpio_write(&pin_reset_, 0);
 118:../../libDaisy//src/dev/oled_ssd130x.h ****         System::Delay(10);
 119:../../libDaisy//src/dev/oled_ssd130x.h ****         dsy_gpio_write(&pin_reset_, 1);
 120:../../libDaisy//src/dev/oled_ssd130x.h ****         System::Delay(10);
 121:../../libDaisy//src/dev/oled_ssd130x.h ****     };
 122:../../libDaisy//src/dev/oled_ssd130x.h ****     void SendCommand(uint8_t cmd)
 123:../../libDaisy//src/dev/oled_ssd130x.h ****     {
 124:../../libDaisy//src/dev/oled_ssd130x.h ****         dsy_gpio_write(&pin_dc_, 0);
 125:../../libDaisy//src/dev/oled_ssd130x.h ****         spi_.BlockingTransmit(&cmd, 1);
 126:../../libDaisy//src/dev/oled_ssd130x.h ****     };
 127:../../libDaisy//src/dev/oled_ssd130x.h **** 
 128:../../libDaisy//src/dev/oled_ssd130x.h ****     void SendData(uint8_t* buff, size_t size)
 129:../../libDaisy//src/dev/oled_ssd130x.h ****     {
 130:../../libDaisy//src/dev/oled_ssd130x.h ****         dsy_gpio_write(&pin_dc_, 1);
 131:../../libDaisy//src/dev/oled_ssd130x.h ****         spi_.BlockingTransmit(buff, size);
 132:../../libDaisy//src/dev/oled_ssd130x.h ****     };
 133:../../libDaisy//src/dev/oled_ssd130x.h **** 
 134:../../libDaisy//src/dev/oled_ssd130x.h ****   private:
 135:../../libDaisy//src/dev/oled_ssd130x.h ****     SpiHandle spi_;
 136:../../libDaisy//src/dev/oled_ssd130x.h ****     dsy_gpio  pin_reset_;
 137:../../libDaisy//src/dev/oled_ssd130x.h ****     dsy_gpio  pin_dc_;
 138:../../libDaisy//src/dev/oled_ssd130x.h **** };
 139:../../libDaisy//src/dev/oled_ssd130x.h **** 
 140:../../libDaisy//src/dev/oled_ssd130x.h **** /**
 141:../../libDaisy//src/dev/oled_ssd130x.h ****  * Soft SPI Transport for SSD1306 / SSD1309 OLED display devices
 142:../../libDaisy//src/dev/oled_ssd130x.h ****  */
 143:../../libDaisy//src/dev/oled_ssd130x.h **** class SSD130x4WireSoftSpiTransport
 144:../../libDaisy//src/dev/oled_ssd130x.h **** {
 145:../../libDaisy//src/dev/oled_ssd130x.h ****   public:
 146:../../libDaisy//src/dev/oled_ssd130x.h ****     struct Config
 147:../../libDaisy//src/dev/oled_ssd130x.h ****     {
 148:../../libDaisy//src/dev/oled_ssd130x.h ****         Config()
 149:../../libDaisy//src/dev/oled_ssd130x.h ****         {
 150:../../libDaisy//src/dev/oled_ssd130x.h ****             // Initialize using defaults
ARM GAS  /var/folders/z5/_7t90xy14zq1swjhncg0p5z00000gn/T//ccqpyGtJ.s 			page 62


 151:../../libDaisy//src/dev/oled_ssd130x.h ****             Defaults();
 152:../../libDaisy//src/dev/oled_ssd130x.h ****         }
 153:../../libDaisy//src/dev/oled_ssd130x.h ****         struct
 154:../../libDaisy//src/dev/oled_ssd130x.h ****         {
 155:../../libDaisy//src/dev/oled_ssd130x.h ****             uint32_t     sclk_delay;
 156:../../libDaisy//src/dev/oled_ssd130x.h ****             dsy_gpio_pin sclk;
 157:../../libDaisy//src/dev/oled_ssd130x.h ****             dsy_gpio_pin mosi;
 158:../../libDaisy//src/dev/oled_ssd130x.h ****             dsy_gpio_pin dc;
 159:../../libDaisy//src/dev/oled_ssd130x.h ****             dsy_gpio_pin reset;
 160:../../libDaisy//src/dev/oled_ssd130x.h ****         } pin_config;
 161:../../libDaisy//src/dev/oled_ssd130x.h ****         void Defaults()
 162:../../libDaisy//src/dev/oled_ssd130x.h ****         {
 163:../../libDaisy//src/dev/oled_ssd130x.h ****             pin_config.sclk_delay = 0; // fast as possible?!
 164:../../libDaisy//src/dev/oled_ssd130x.h ****             // SPI peripheral config
 165:../../libDaisy//src/dev/oled_ssd130x.h ****             pin_config.sclk = {DSY_GPIOD, 3}; /**< D10 - SPI2 SCK  */
 166:../../libDaisy//src/dev/oled_ssd130x.h ****             pin_config.mosi = {DSY_GPIOC, 3}; /**< D9  - SPI2 MOSI */
 167:../../libDaisy//src/dev/oled_ssd130x.h ****             // SSD130x control pin config
 168:../../libDaisy//src/dev/oled_ssd130x.h ****             pin_config.dc    = {DSY_GPIOC, 11}; //D2
 169:../../libDaisy//src/dev/oled_ssd130x.h ****             pin_config.reset = {DSY_GPIOC, 10}; //D3
 170:../../libDaisy//src/dev/oled_ssd130x.h ****         }
 171:../../libDaisy//src/dev/oled_ssd130x.h ****     };
 172:../../libDaisy//src/dev/oled_ssd130x.h ****     void Init(const Config& config)
 173:../../libDaisy//src/dev/oled_ssd130x.h ****     {
 174:../../libDaisy//src/dev/oled_ssd130x.h ****         // Initialize both GPIO
 175:../../libDaisy//src/dev/oled_ssd130x.h ****         pin_sclk_.mode = DSY_GPIO_MODE_OUTPUT_PP;
 176:../../libDaisy//src/dev/oled_ssd130x.h ****         pin_sclk_.pin  = config.pin_config.sclk;
 177:../../libDaisy//src/dev/oled_ssd130x.h ****         dsy_gpio_init(&pin_sclk_);
 178:../../libDaisy//src/dev/oled_ssd130x.h ****         dsy_gpio_write(&pin_sclk_, 1); //ClockPolarity::LOW
 179:../../libDaisy//src/dev/oled_ssd130x.h ****         clk_delay      = config.pin_config.sclk_delay;
 180:../../libDaisy//src/dev/oled_ssd130x.h ****         pin_mosi_.mode = DSY_GPIO_MODE_OUTPUT_PP;
 181:../../libDaisy//src/dev/oled_ssd130x.h ****         pin_mosi_.pin  = config.pin_config.mosi;
 182:../../libDaisy//src/dev/oled_ssd130x.h ****         dsy_gpio_init(&pin_mosi_);
 183:../../libDaisy//src/dev/oled_ssd130x.h ****         dsy_gpio_write(&pin_mosi_, 0);
 184:../../libDaisy//src/dev/oled_ssd130x.h **** 
 185:../../libDaisy//src/dev/oled_ssd130x.h ****         pin_dc_.mode = DSY_GPIO_MODE_OUTPUT_PP;
 186:../../libDaisy//src/dev/oled_ssd130x.h ****         pin_dc_.pin  = config.pin_config.dc;
 187:../../libDaisy//src/dev/oled_ssd130x.h ****         dsy_gpio_init(&pin_dc_);
 188:../../libDaisy//src/dev/oled_ssd130x.h ****         pin_reset_.mode = DSY_GPIO_MODE_OUTPUT_PP;
 189:../../libDaisy//src/dev/oled_ssd130x.h ****         pin_reset_.pin  = config.pin_config.reset;
 190:../../libDaisy//src/dev/oled_ssd130x.h ****         dsy_gpio_init(&pin_reset_);
 191:../../libDaisy//src/dev/oled_ssd130x.h **** 
 192:../../libDaisy//src/dev/oled_ssd130x.h ****         // Reset and Configure OLED.
 193:../../libDaisy//src/dev/oled_ssd130x.h ****         dsy_gpio_write(&pin_reset_, 0);
 194:../../libDaisy//src/dev/oled_ssd130x.h ****         System::Delay(10);
 195:../../libDaisy//src/dev/oled_ssd130x.h ****         dsy_gpio_write(&pin_reset_, 1);
 196:../../libDaisy//src/dev/oled_ssd130x.h ****         System::Delay(10);
 197:../../libDaisy//src/dev/oled_ssd130x.h ****     };
 198:../../libDaisy//src/dev/oled_ssd130x.h ****     void SendCommand(uint8_t cmd)
 199:../../libDaisy//src/dev/oled_ssd130x.h ****     {
 200:../../libDaisy//src/dev/oled_ssd130x.h ****         dsy_gpio_write(&pin_dc_, 0);
 201:../../libDaisy//src/dev/oled_ssd130x.h ****         SoftSpiTransmit(cmd);
 202:../../libDaisy//src/dev/oled_ssd130x.h ****     };
 203:../../libDaisy//src/dev/oled_ssd130x.h **** 
 204:../../libDaisy//src/dev/oled_ssd130x.h ****     void SendData(uint8_t* buff, size_t size)
 205:../../libDaisy//src/dev/oled_ssd130x.h ****     {
 206:../../libDaisy//src/dev/oled_ssd130x.h ****         dsy_gpio_write(&pin_dc_, 1);
 207:../../libDaisy//src/dev/oled_ssd130x.h ****         for(size_t i = 0; i < size; i++)
ARM GAS  /var/folders/z5/_7t90xy14zq1swjhncg0p5z00000gn/T//ccqpyGtJ.s 			page 63


 208:../../libDaisy//src/dev/oled_ssd130x.h ****             SoftSpiTransmit(buff[i]);
 209:../../libDaisy//src/dev/oled_ssd130x.h ****     };
 210:../../libDaisy//src/dev/oled_ssd130x.h **** 
 211:../../libDaisy//src/dev/oled_ssd130x.h ****   private:
 212:../../libDaisy//src/dev/oled_ssd130x.h ****     void SoftSpiTransmit(uint8_t val)
 213:../../libDaisy//src/dev/oled_ssd130x.h ****     {
 214:../../libDaisy//src/dev/oled_ssd130x.h ****         // bit flip
 215:../../libDaisy//src/dev/oled_ssd130x.h ****         val = ((val & 0x01) << 7) | ((val & 0x02) << 5) | ((val & 0x04) << 3)
 216:../../libDaisy//src/dev/oled_ssd130x.h ****               | ((val & 0x08) << 1) | ((val & 0x10) >> 1) | ((val & 0x20) >> 3)
 217:../../libDaisy//src/dev/oled_ssd130x.h ****               | ((val & 0x40) >> 5) | ((val & 0x80) >> 7);
 218:../../libDaisy//src/dev/oled_ssd130x.h **** 
 219:../../libDaisy//src/dev/oled_ssd130x.h ****         for(uint8_t bit = 0u; bit < 8u; bit++)
 220:../../libDaisy//src/dev/oled_ssd130x.h ****         {
 221:../../libDaisy//src/dev/oled_ssd130x.h ****             dsy_gpio_write(&pin_mosi_, ((val & (1 << bit)) ? 1 : 0));
 222:../../libDaisy//src/dev/oled_ssd130x.h **** 
 223:../../libDaisy//src/dev/oled_ssd130x.h ****             System::DelayTicks(clk_delay);
 224:../../libDaisy//src/dev/oled_ssd130x.h **** 
 225:../../libDaisy//src/dev/oled_ssd130x.h ****             dsy_gpio_toggle(&pin_sclk_);
 226:../../libDaisy//src/dev/oled_ssd130x.h **** 
 227:../../libDaisy//src/dev/oled_ssd130x.h ****             System::DelayTicks(clk_delay);
 228:../../libDaisy//src/dev/oled_ssd130x.h **** 
 229:../../libDaisy//src/dev/oled_ssd130x.h ****             dsy_gpio_toggle(&pin_sclk_);
 230:../../libDaisy//src/dev/oled_ssd130x.h ****         }
 231:../../libDaisy//src/dev/oled_ssd130x.h ****     }
 232:../../libDaisy//src/dev/oled_ssd130x.h **** 
 233:../../libDaisy//src/dev/oled_ssd130x.h ****     uint32_t clk_delay;
 234:../../libDaisy//src/dev/oled_ssd130x.h ****     dsy_gpio pin_sclk_;
 235:../../libDaisy//src/dev/oled_ssd130x.h ****     dsy_gpio pin_mosi_;
 236:../../libDaisy//src/dev/oled_ssd130x.h ****     dsy_gpio pin_reset_;
 237:../../libDaisy//src/dev/oled_ssd130x.h ****     dsy_gpio pin_dc_;
 238:../../libDaisy//src/dev/oled_ssd130x.h **** };
 239:../../libDaisy//src/dev/oled_ssd130x.h **** 
 240:../../libDaisy//src/dev/oled_ssd130x.h **** 
 241:../../libDaisy//src/dev/oled_ssd130x.h **** /**
 242:../../libDaisy//src/dev/oled_ssd130x.h ****  * A driver implementation for the SSD1306/SSD1309
 243:../../libDaisy//src/dev/oled_ssd130x.h ****  */
 244:../../libDaisy//src/dev/oled_ssd130x.h **** template <size_t width, size_t height, typename Transport>
 245:../../libDaisy//src/dev/oled_ssd130x.h **** class SSD130xDriver
 246:../../libDaisy//src/dev/oled_ssd130x.h **** {
 247:../../libDaisy//src/dev/oled_ssd130x.h ****   public:
 248:../../libDaisy//src/dev/oled_ssd130x.h ****     struct Config
 249:../../libDaisy//src/dev/oled_ssd130x.h ****     {
 250:../../libDaisy//src/dev/oled_ssd130x.h ****         typename Transport::Config transport_config;
 251:../../libDaisy//src/dev/oled_ssd130x.h ****     };
 252:../../libDaisy//src/dev/oled_ssd130x.h **** 
 253:../../libDaisy//src/dev/oled_ssd130x.h ****     void Init(Config config)
 254:../../libDaisy//src/dev/oled_ssd130x.h ****     {
 255:../../libDaisy//src/dev/oled_ssd130x.h ****         transport_.Init(config.transport_config);
 256:../../libDaisy//src/dev/oled_ssd130x.h **** 
 257:../../libDaisy//src/dev/oled_ssd130x.h ****         // Init routine...
 258:../../libDaisy//src/dev/oled_ssd130x.h **** 
 259:../../libDaisy//src/dev/oled_ssd130x.h ****         // Display Off
 260:../../libDaisy//src/dev/oled_ssd130x.h ****         transport_.SendCommand(0xaE);
 261:../../libDaisy//src/dev/oled_ssd130x.h ****         // Dimension dependent commands...
 262:../../libDaisy//src/dev/oled_ssd130x.h ****         switch(height)
 263:../../libDaisy//src/dev/oled_ssd130x.h ****         {
 264:../../libDaisy//src/dev/oled_ssd130x.h ****             case 16:
ARM GAS  /var/folders/z5/_7t90xy14zq1swjhncg0p5z00000gn/T//ccqpyGtJ.s 			page 64


 265:../../libDaisy//src/dev/oled_ssd130x.h ****                 // Display Clock Divide Ratio
 266:../../libDaisy//src/dev/oled_ssd130x.h ****                 transport_.SendCommand(0xD5);
 267:../../libDaisy//src/dev/oled_ssd130x.h ****                 transport_.SendCommand(0x60);
 268:../../libDaisy//src/dev/oled_ssd130x.h ****                 // Multiplex Ratio
 269:../../libDaisy//src/dev/oled_ssd130x.h ****                 transport_.SendCommand(0xA8);
 270:../../libDaisy//src/dev/oled_ssd130x.h ****                 transport_.SendCommand(0x0F);
 271:../../libDaisy//src/dev/oled_ssd130x.h ****                 // COM Pins
 272:../../libDaisy//src/dev/oled_ssd130x.h ****                 transport_.SendCommand(0xDA);
 273:../../libDaisy//src/dev/oled_ssd130x.h ****                 transport_.SendCommand(0x02);
 274:../../libDaisy//src/dev/oled_ssd130x.h ****                 break;
 275:../../libDaisy//src/dev/oled_ssd130x.h ****             case 32:
 276:../../libDaisy//src/dev/oled_ssd130x.h ****                 // Display Clock Divide Ratio
 277:../../libDaisy//src/dev/oled_ssd130x.h ****                 transport_.SendCommand(0xD5);
 278:../../libDaisy//src/dev/oled_ssd130x.h ****                 transport_.SendCommand(0x80);
 279:../../libDaisy//src/dev/oled_ssd130x.h ****                 // Multiplex Ratio
 280:../../libDaisy//src/dev/oled_ssd130x.h ****                 transport_.SendCommand(0xA8);
 281:../../libDaisy//src/dev/oled_ssd130x.h ****                 transport_.SendCommand(0x1F);
 282:../../libDaisy//src/dev/oled_ssd130x.h ****                 // COM Pins
 283:../../libDaisy//src/dev/oled_ssd130x.h ****                 transport_.SendCommand(0xDA);
 284:../../libDaisy//src/dev/oled_ssd130x.h ****                 if(width == 64)
 285:../../libDaisy//src/dev/oled_ssd130x.h ****                 {
 286:../../libDaisy//src/dev/oled_ssd130x.h ****                     transport_.SendCommand(0x12);
 287:../../libDaisy//src/dev/oled_ssd130x.h ****                 }
 288:../../libDaisy//src/dev/oled_ssd130x.h ****                 else
 289:../../libDaisy//src/dev/oled_ssd130x.h ****                 {
 290:../../libDaisy//src/dev/oled_ssd130x.h ****                     transport_.SendCommand(0x02);
 291:../../libDaisy//src/dev/oled_ssd130x.h ****                 }
 292:../../libDaisy//src/dev/oled_ssd130x.h **** 
 293:../../libDaisy//src/dev/oled_ssd130x.h ****                 break;
 294:../../libDaisy//src/dev/oled_ssd130x.h ****             case 48:
 295:../../libDaisy//src/dev/oled_ssd130x.h ****                 // Display Clock Divide Ratio
 296:../../libDaisy//src/dev/oled_ssd130x.h ****                 transport_.SendCommand(0xD5);
 297:../../libDaisy//src/dev/oled_ssd130x.h ****                 transport_.SendCommand(0x80);
 298:../../libDaisy//src/dev/oled_ssd130x.h ****                 // Multiplex Ratio
 299:../../libDaisy//src/dev/oled_ssd130x.h ****                 transport_.SendCommand(0xA8);
 300:../../libDaisy//src/dev/oled_ssd130x.h ****                 transport_.SendCommand(0x2F);
 301:../../libDaisy//src/dev/oled_ssd130x.h ****                 // COM Pins
 302:../../libDaisy//src/dev/oled_ssd130x.h ****                 transport_.SendCommand(0xDA);
 303:../../libDaisy//src/dev/oled_ssd130x.h ****                 transport_.SendCommand(0x12);
 304:../../libDaisy//src/dev/oled_ssd130x.h ****                 break;
 305:../../libDaisy//src/dev/oled_ssd130x.h ****             default: // 128
 306:../../libDaisy//src/dev/oled_ssd130x.h ****                 // Display Clock Divide Ratio
 307:../../libDaisy//src/dev/oled_ssd130x.h ****                 transport_.SendCommand(0xD5);
 308:../../libDaisy//src/dev/oled_ssd130x.h ****                 transport_.SendCommand(0x80);
 309:../../libDaisy//src/dev/oled_ssd130x.h ****                 // Multiplex Ratio
 310:../../libDaisy//src/dev/oled_ssd130x.h ****                 transport_.SendCommand(0xA8);
 311:../../libDaisy//src/dev/oled_ssd130x.h ****                 transport_.SendCommand(0x3F);
 312:../../libDaisy//src/dev/oled_ssd130x.h ****                 // COM Pins
 313:../../libDaisy//src/dev/oled_ssd130x.h ****                 transport_.SendCommand(0xDA);
 314:../../libDaisy//src/dev/oled_ssd130x.h ****                 transport_.SendCommand(0x12);
 315:../../libDaisy//src/dev/oled_ssd130x.h ****                 break;
 316:../../libDaisy//src/dev/oled_ssd130x.h ****         }
 317:../../libDaisy//src/dev/oled_ssd130x.h **** 
 318:../../libDaisy//src/dev/oled_ssd130x.h ****         // Display Offset
 319:../../libDaisy//src/dev/oled_ssd130x.h ****         transport_.SendCommand(0xD3);
 320:../../libDaisy//src/dev/oled_ssd130x.h ****         transport_.SendCommand(0x00);
 321:../../libDaisy//src/dev/oled_ssd130x.h ****         // Start Line Address
ARM GAS  /var/folders/z5/_7t90xy14zq1swjhncg0p5z00000gn/T//ccqpyGtJ.s 			page 65


 322:../../libDaisy//src/dev/oled_ssd130x.h ****         transport_.SendCommand(0x40);
 323:../../libDaisy//src/dev/oled_ssd130x.h ****         // Normal Display
 324:../../libDaisy//src/dev/oled_ssd130x.h ****         transport_.SendCommand(0xA6);
 325:../../libDaisy//src/dev/oled_ssd130x.h ****         // All On Resume
 326:../../libDaisy//src/dev/oled_ssd130x.h ****         transport_.SendCommand(0xA4);
 327:../../libDaisy//src/dev/oled_ssd130x.h ****         // Charge Pump
 328:../../libDaisy//src/dev/oled_ssd130x.h ****         transport_.SendCommand(0x8D);
 329:../../libDaisy//src/dev/oled_ssd130x.h ****         transport_.SendCommand(0x14);
 330:../../libDaisy//src/dev/oled_ssd130x.h ****         // Set Segment Remap
 331:../../libDaisy//src/dev/oled_ssd130x.h ****         transport_.SendCommand(0xA1);
 332:../../libDaisy//src/dev/oled_ssd130x.h ****         // COM Output Scan Direction
 333:../../libDaisy//src/dev/oled_ssd130x.h ****         transport_.SendCommand(0xC8);
 334:../../libDaisy//src/dev/oled_ssd130x.h ****         // Contrast Control
 335:../../libDaisy//src/dev/oled_ssd130x.h ****         transport_.SendCommand(0x81);
 336:../../libDaisy//src/dev/oled_ssd130x.h ****         transport_.SendCommand(0x8F);
 337:../../libDaisy//src/dev/oled_ssd130x.h ****         // Pre Charge
 338:../../libDaisy//src/dev/oled_ssd130x.h ****         transport_.SendCommand(0xD9);
 339:../../libDaisy//src/dev/oled_ssd130x.h ****         transport_.SendCommand(0x25);
 340:../../libDaisy//src/dev/oled_ssd130x.h ****         // VCOM Detect
 341:../../libDaisy//src/dev/oled_ssd130x.h ****         transport_.SendCommand(0xDB);
 342:../../libDaisy//src/dev/oled_ssd130x.h ****         transport_.SendCommand(0x34);
 343:../../libDaisy//src/dev/oled_ssd130x.h **** 
 344:../../libDaisy//src/dev/oled_ssd130x.h **** 
 345:../../libDaisy//src/dev/oled_ssd130x.h ****         // Display On
 346:../../libDaisy//src/dev/oled_ssd130x.h ****         transport_.SendCommand(0xAF); //--turn on oled panel
 347:../../libDaisy//src/dev/oled_ssd130x.h ****     };
 348:../../libDaisy//src/dev/oled_ssd130x.h **** 
 349:../../libDaisy//src/dev/oled_ssd130x.h ****     size_t Width() const { return width; };
 350:../../libDaisy//src/dev/oled_ssd130x.h ****     size_t Height() const { return height; };
 351:../../libDaisy//src/dev/oled_ssd130x.h **** 
 352:../../libDaisy//src/dev/oled_ssd130x.h ****     void DrawPixel(uint_fast8_t x, uint_fast8_t y, bool on)
 353:../../libDaisy//src/dev/oled_ssd130x.h ****     {
 354:../../libDaisy//src/dev/oled_ssd130x.h ****         if(x >= width || y >= height)
 355:../../libDaisy//src/dev/oled_ssd130x.h ****             return;
 356:../../libDaisy//src/dev/oled_ssd130x.h ****         if(on)
 357:../../libDaisy//src/dev/oled_ssd130x.h ****             buffer_[x + (y / 8) * width] |= (1 << (y % 8));
 358:../../libDaisy//src/dev/oled_ssd130x.h ****         else
 359:../../libDaisy//src/dev/oled_ssd130x.h ****             buffer_[x + (y / 8) * width] &= ~(1 << (y % 8));
 360:../../libDaisy//src/dev/oled_ssd130x.h ****     }
 361:../../libDaisy//src/dev/oled_ssd130x.h **** 
 362:../../libDaisy//src/dev/oled_ssd130x.h ****     void Fill(bool on)
 1347              		.loc 16 362 10 is_stmt 1 view -0
 1348              		.cfi_startproc
 1349              		@ args = 0, pretend = 0, frame = 0
 1350              		@ frame_needed = 0, uses_anonymous_args = 0
 1351              		@ link register save eliminated.
 1352              	.LBB570:
 363:../../libDaisy//src/dev/oled_ssd130x.h ****     {
 364:../../libDaisy//src/dev/oled_ssd130x.h ****         for(size_t i = 0; i < sizeof(buffer_); i++)
 1353              		.loc 16 364 29 view .LVU319
 1354 0000 00F10803 		add	r3, r0, #8
 1355 0004 00F58160 		add	r0, r0, #1032
 1356              	.LVL88:
 1357              	.L70:
 365:../../libDaisy//src/dev/oled_ssd130x.h ****         {
 366:../../libDaisy//src/dev/oled_ssd130x.h ****             buffer_[i] = on ? 0xff : 0x00;
 1358              		.loc 16 366 24 is_stmt 0 view .LVU320
ARM GAS  /var/folders/z5/_7t90xy14zq1swjhncg0p5z00000gn/T//ccqpyGtJ.s 			page 66


 1359 0008 4A42     		rsbs	r2, r1, #0
 1360 000a 03F8012B 		strb	r2, [r3], #1
 1361              	.LVL89:
 364:../../libDaisy//src/dev/oled_ssd130x.h ****         {
 1362              		.loc 16 364 9 is_stmt 1 view .LVU321
 364:../../libDaisy//src/dev/oled_ssd130x.h ****         {
 1363              		.loc 16 364 29 view .LVU322
 1364 000e 8342     		cmp	r3, r0
 1365 0010 FAD1     		bne	.L70
 1366              	.LBE570:
 367:../../libDaisy//src/dev/oled_ssd130x.h ****         }
 368:../../libDaisy//src/dev/oled_ssd130x.h ****     };
 1367              		.loc 16 368 5 is_stmt 0 view .LVU323
 1368 0012 7047     		bx	lr
 1369              		.cfi_endproc
 1370              	.LFE5409:
 1372              		.section	.text._ZN5daisy11OledDisplayINS_13SSD130xDriverILj128ELj64ENS_19SSD130xI2CTransportEEEE4F
 1373              		.align	1
 1374              		.weak	_ZN5daisy11OledDisplayINS_13SSD130xDriverILj128ELj64ENS_19SSD130xI2CTransportEEEE4FillEb
 1375              		.syntax unified
 1376              		.thumb
 1377              		.thumb_func
 1379              	_ZN5daisy11OledDisplayINS_13SSD130xDriverILj128ELj64ENS_19SSD130xI2CTransportEEEE4FillEb:
 1380              	.LVL90:
 1381              	.LFB5269:
  29:../../libDaisy//src/hid/disp/oled_display.h **** 
  30:../../libDaisy//src/hid/disp/oled_display.h ****     /** 
  31:../../libDaisy//src/hid/disp/oled_display.h ****     Fills the entire display with either on/off.
  32:../../libDaisy//src/hid/disp/oled_display.h ****     \param on Sets on or off.
  33:../../libDaisy//src/hid/disp/oled_display.h ****     */
  34:../../libDaisy//src/hid/disp/oled_display.h ****     void Fill(bool on) override { driver_.Fill(on); }
 1382              		.loc 14 34 10 is_stmt 1 view -0
 1383              		.cfi_startproc
 1384              		@ args = 0, pretend = 0, frame = 0
 1385              		@ frame_needed = 0, uses_anonymous_args = 0
 1386              		.loc 14 34 47 is_stmt 0 view .LVU325
 1387 0000 0830     		adds	r0, r0, #8
 1388              	.LVL91:
 1389              		.loc 14 34 10 view .LVU326
 1390 0002 08B5     		push	{r3, lr}
 1391              		.cfi_def_cfa_offset 8
 1392              		.cfi_offset 3, -8
 1393              		.cfi_offset 14, -4
 1394              		.loc 14 34 47 view .LVU327
 1395 0004 FFF7FEFF 		bl	_ZN5daisy13SSD130xDriverILj128ELj64ENS_19SSD130xI2CTransportEE4FillEb
 1396              	.LVL92:
 1397              		.loc 14 34 53 view .LVU328
 1398 0008 08BD     		pop	{r3, pc}
 1399              		.cfi_endproc
 1400              	.LFE5269:
 1402              		.section	.text._ZN5daisy13SSD130xDriverILj128ELj64ENS_19SSD130xI2CTransportEE6UpdateEv,"axG",%prog
 1403              		.align	1
 1404              		.weak	_ZN5daisy13SSD130xDriverILj128ELj64ENS_19SSD130xI2CTransportEE6UpdateEv
 1405              		.syntax unified
 1406              		.thumb
 1407              		.thumb_func
 1409              	_ZN5daisy13SSD130xDriverILj128ELj64ENS_19SSD130xI2CTransportEE6UpdateEv:
ARM GAS  /var/folders/z5/_7t90xy14zq1swjhncg0p5z00000gn/T//ccqpyGtJ.s 			page 67


 1410              	.LVL93:
 1411              	.LFB5411:
 369:../../libDaisy//src/dev/oled_ssd130x.h **** 
 370:../../libDaisy//src/dev/oled_ssd130x.h ****     /**
 371:../../libDaisy//src/dev/oled_ssd130x.h ****      * Update the display 
 372:../../libDaisy//src/dev/oled_ssd130x.h ****     */
 373:../../libDaisy//src/dev/oled_ssd130x.h ****     void Update()
 1412              		.loc 16 373 10 is_stmt 1 view -0
 1413              		.cfi_startproc
 1414              		@ args = 0, pretend = 0, frame = 8
 1415              		@ frame_needed = 0, uses_anonymous_args = 0
 374:../../libDaisy//src/dev/oled_ssd130x.h ****     {
 375:../../libDaisy//src/dev/oled_ssd130x.h ****         uint8_t i;
 376:../../libDaisy//src/dev/oled_ssd130x.h ****         uint8_t high_column_addr;
 377:../../libDaisy//src/dev/oled_ssd130x.h ****         switch(height)
 378:../../libDaisy//src/dev/oled_ssd130x.h ****         {
 379:../../libDaisy//src/dev/oled_ssd130x.h ****             case 32: high_column_addr = 0x12; break;
 380:../../libDaisy//src/dev/oled_ssd130x.h **** 
 381:../../libDaisy//src/dev/oled_ssd130x.h ****             default: high_column_addr = 0x10; break;
 382:../../libDaisy//src/dev/oled_ssd130x.h ****         }
 383:../../libDaisy//src/dev/oled_ssd130x.h ****         for(i = 0; i < (height / 8); i++)
 1416              		.loc 16 383 22 view .LVU330
 373:../../libDaisy//src/dev/oled_ssd130x.h ****     {
 1417              		.loc 16 373 10 is_stmt 0 view .LVU331
 1418 0000 F0B5     		push	{r4, r5, r6, r7, lr}
 1419              		.cfi_def_cfa_offset 20
 1420              		.cfi_offset 4, -20
 1421              		.cfi_offset 5, -16
 1422              		.cfi_offset 6, -12
 1423              		.cfi_offset 7, -8
 1424              		.cfi_offset 14, -4
 1425 0002 0446     		mov	r4, r0
 1426 0004 85B0     		sub	sp, sp, #20
 1427              		.cfi_def_cfa_offset 40
 1428 0006 C71D     		adds	r7, r0, #7
 373:../../libDaisy//src/dev/oled_ssd130x.h ****     {
 1429              		.loc 16 373 10 view .LVU332
 1430 0008 B025     		movs	r5, #176
 1431              	.LVL94:
 1432              	.L75:
 384:../../libDaisy//src/dev/oled_ssd130x.h ****         {
 385:../../libDaisy//src/dev/oled_ssd130x.h ****             transport_.SendCommand(0xB0 + i);
 1433              		.loc 16 385 35 discriminator 2 view .LVU333
 1434 000a 2946     		mov	r1, r5
 1435 000c 2046     		mov	r0, r4
 1436 000e FFF7FEFF 		bl	_ZN5daisy19SSD130xI2CTransport11SendCommandEh
 1437              	.LVL95:
 386:../../libDaisy//src/dev/oled_ssd130x.h ****             transport_.SendCommand(0x00);
 387:../../libDaisy//src/dev/oled_ssd130x.h ****             transport_.SendCommand(high_column_addr);
 1438              		.loc 16 387 35 discriminator 2 view .LVU334
 1439 0012 3E46     		mov	r6, r7
 386:../../libDaisy//src/dev/oled_ssd130x.h ****             transport_.SendCommand(0x00);
 1440              		.loc 16 386 35 discriminator 2 view .LVU335
 1441 0014 0021     		movs	r1, #0
 1442 0016 2046     		mov	r0, r4
 1443 0018 FFF7FEFF 		bl	_ZN5daisy19SSD130xI2CTransport11SendCommandEh
 1444              	.LVL96:
ARM GAS  /var/folders/z5/_7t90xy14zq1swjhncg0p5z00000gn/T//ccqpyGtJ.s 			page 68


 1445              		.loc 16 387 35 discriminator 2 view .LVU336
 1446 001c 1021     		movs	r1, #16
 1447 001e 2046     		mov	r0, r4
 1448 0020 FFF7FEFF 		bl	_ZN5daisy19SSD130xI2CTransport11SendCommandEh
 1449              	.LVL97:
 1450              	.LBB575:
 1451              	.LBI575:
  48:../../libDaisy//src/dev/oled_ssd130x.h ****     {
 1452              		.loc 16 48 10 is_stmt 1 discriminator 2 view .LVU337
 1453              	.LBE575:
  50:../../libDaisy//src/dev/oled_ssd130x.h ****         {
 1454              		.loc 16 50 9 discriminator 2 view .LVU338
 1455              	.LBB578:
 1456              	.LBB576:
  50:../../libDaisy//src/dev/oled_ssd130x.h ****         {
 1457              		.loc 16 50 29 discriminator 2 view .LVU339
 1458              	.L74:
 1459              	.LBB577:
  52:../../libDaisy//src/dev/oled_ssd130x.h ****             i2c_.TransmitBlocking(i2c_address_, buf, 2, 1000);
 1460              		.loc 16 52 13 view .LVU340
  52:../../libDaisy//src/dev/oled_ssd130x.h ****             i2c_.TransmitBlocking(i2c_address_, buf, 2, 1000);
 1461              		.loc 16 52 21 is_stmt 0 view .LVU341
 1462 0024 4023     		movs	r3, #64
  53:../../libDaisy//src/dev/oled_ssd130x.h ****         }
 1463              		.loc 16 53 34 view .LVU342
 1464 0026 03AA     		add	r2, sp, #12
 1465 0028 2179     		ldrb	r1, [r4, #4]	@ zero_extendqisi2
 1466 002a 2046     		mov	r0, r4
  52:../../libDaisy//src/dev/oled_ssd130x.h ****             i2c_.TransmitBlocking(i2c_address_, buf, 2, 1000);
 1467              		.loc 16 52 21 view .LVU343
 1468 002c 8DF80C30 		strb	r3, [sp, #12]
  52:../../libDaisy//src/dev/oled_ssd130x.h ****             i2c_.TransmitBlocking(i2c_address_, buf, 2, 1000);
 1469              		.loc 16 52 44 view .LVU344
 1470 0030 16F8013F 		ldrb	r3, [r6, #1]!	@ zero_extendqisi2
 1471              	.LVL98:
  52:../../libDaisy//src/dev/oled_ssd130x.h ****             i2c_.TransmitBlocking(i2c_address_, buf, 2, 1000);
 1472              		.loc 16 52 44 view .LVU345
 1473 0034 8DF80D30 		strb	r3, [sp, #13]
  53:../../libDaisy//src/dev/oled_ssd130x.h ****         }
 1474              		.loc 16 53 13 is_stmt 1 view .LVU346
  53:../../libDaisy//src/dev/oled_ssd130x.h ****         }
 1475              		.loc 16 53 34 is_stmt 0 view .LVU347
 1476 0038 4FF47A73 		mov	r3, #1000
 1477 003c 0093     		str	r3, [sp]
 1478 003e 0223     		movs	r3, #2
 1479 0040 FFF7FEFF 		bl	_ZN5daisy9I2CHandle16TransmitBlockingEtPhtm
 1480              	.LVL99:
 1481              	.LBE577:
  50:../../libDaisy//src/dev/oled_ssd130x.h ****         {
 1482              		.loc 16 50 9 is_stmt 1 view .LVU348
  50:../../libDaisy//src/dev/oled_ssd130x.h ****         {
 1483              		.loc 16 50 29 view .LVU349
 1484 0044 07F18003 		add	r3, r7, #128
 1485 0048 9E42     		cmp	r6, r3
 1486 004a EBD1     		bne	.L74
 1487              	.LVL100:
  50:../../libDaisy//src/dev/oled_ssd130x.h ****         {
ARM GAS  /var/folders/z5/_7t90xy14zq1swjhncg0p5z00000gn/T//ccqpyGtJ.s 			page 69


 1488              		.loc 16 50 29 is_stmt 0 view .LVU350
 1489              	.LBE576:
 1490              	.LBE578:
 383:../../libDaisy//src/dev/oled_ssd130x.h ****         {
 1491              		.loc 16 383 9 is_stmt 1 discriminator 2 view .LVU351
 383:../../libDaisy//src/dev/oled_ssd130x.h ****         {
 1492              		.loc 16 383 22 discriminator 2 view .LVU352
 1493 004c 0135     		adds	r5, r5, #1
 1494              	.LVL101:
 383:../../libDaisy//src/dev/oled_ssd130x.h ****         {
 1495              		.loc 16 383 22 is_stmt 0 discriminator 2 view .LVU353
 1496 004e EDB2     		uxtb	r5, r5
 1497 0050 B82D     		cmp	r5, #184
 1498 0052 01D1     		bne	.L76
 388:../../libDaisy//src/dev/oled_ssd130x.h ****             transport_.SendData(&buffer_[width * i], width);
 389:../../libDaisy//src/dev/oled_ssd130x.h ****         }
 390:../../libDaisy//src/dev/oled_ssd130x.h ****     };
 1499              		.loc 16 390 5 view .LVU354
 1500 0054 05B0     		add	sp, sp, #20
 1501              		.cfi_remember_state
 1502              		.cfi_def_cfa_offset 20
 1503              		@ sp needed
 1504 0056 F0BD     		pop	{r4, r5, r6, r7, pc}
 1505              	.LVL102:
 1506              	.L76:
 1507              		.cfi_restore_state
 1508              		.loc 16 390 5 view .LVU355
 1509 0058 3746     		mov	r7, r6
 1510 005a D6E7     		b	.L75
 1511              		.cfi_endproc
 1512              	.LFE5411:
 1514              		.section	.text._ZN5daisy11OledDisplayINS_13SSD130xDriverILj128ELj64ENS_19SSD130xI2CTransportEEEE6U
 1515              		.align	1
 1516              		.weak	_ZN5daisy11OledDisplayINS_13SSD130xDriverILj128ELj64ENS_19SSD130xI2CTransportEEEE6UpdateEv
 1517              		.syntax unified
 1518              		.thumb
 1519              		.thumb_func
 1521              	_ZN5daisy11OledDisplayINS_13SSD130xDriverILj128ELj64ENS_19SSD130xI2CTransportEEEE6UpdateEv:
 1522              	.LVL103:
 1523              	.LFB5271:
  35:../../libDaisy//src/hid/disp/oled_display.h **** 
  36:../../libDaisy//src/hid/disp/oled_display.h ****     /**
  37:../../libDaisy//src/hid/disp/oled_display.h ****     Sets the pixel at the specified coordinate to be on/off.
  38:../../libDaisy//src/hid/disp/oled_display.h ****     \param x   x Coordinate
  39:../../libDaisy//src/hid/disp/oled_display.h ****     \param y   y coordinate
  40:../../libDaisy//src/hid/disp/oled_display.h ****     \param on  on or off
  41:../../libDaisy//src/hid/disp/oled_display.h ****     */
  42:../../libDaisy//src/hid/disp/oled_display.h ****     void DrawPixel(uint_fast8_t x, uint_fast8_t y, bool on) override
  43:../../libDaisy//src/hid/disp/oled_display.h ****     {
  44:../../libDaisy//src/hid/disp/oled_display.h ****         driver_.DrawPixel(x, y, on);
  45:../../libDaisy//src/hid/disp/oled_display.h ****     }
  46:../../libDaisy//src/hid/disp/oled_display.h **** 
  47:../../libDaisy//src/hid/disp/oled_display.h ****     /** 
  48:../../libDaisy//src/hid/disp/oled_display.h ****     Writes the current display buffer to the OLED device using SPI or I2C depending on 
  49:../../libDaisy//src/hid/disp/oled_display.h ****     how the object was initialized.
  50:../../libDaisy//src/hid/disp/oled_display.h ****     */
  51:../../libDaisy//src/hid/disp/oled_display.h ****     void Update() override { driver_.Update(); }
ARM GAS  /var/folders/z5/_7t90xy14zq1swjhncg0p5z00000gn/T//ccqpyGtJ.s 			page 70


 1524              		.loc 14 51 10 is_stmt 1 view -0
 1525              		.cfi_startproc
 1526              		@ args = 0, pretend = 0, frame = 0
 1527              		@ frame_needed = 0, uses_anonymous_args = 0
 1528              		.loc 14 51 44 is_stmt 0 view .LVU357
 1529 0000 0830     		adds	r0, r0, #8
 1530              	.LVL104:
 1531              		.loc 14 51 10 view .LVU358
 1532 0002 08B5     		push	{r3, lr}
 1533              		.cfi_def_cfa_offset 8
 1534              		.cfi_offset 3, -8
 1535              		.cfi_offset 14, -4
 1536              		.loc 14 51 44 view .LVU359
 1537 0004 FFF7FEFF 		bl	_ZN5daisy13SSD130xDriverILj128ELj64ENS_19SSD130xI2CTransportEE6UpdateEv
 1538              	.LVL105:
 1539              		.loc 14 51 48 view .LVU360
 1540 0008 08BD     		pop	{r3, pc}
 1541              		.cfi_endproc
 1542              	.LFE5271:
 1544              		.section	.text._ZN8SequenceILj16ELj16EE6GetLEDEj,"axG",%progbits,_ZN8SequenceILj16ELj16EE6GetLEDEj
 1545              		.align	1
 1546              		.weak	_ZN8SequenceILj16ELj16EE6GetLEDEj
 1547              		.syntax unified
 1548              		.thumb
 1549              		.thumb_func
 1551              	_ZN8SequenceILj16ELj16EE6GetLEDEj:
 1552              	.LVL106:
 1553              	.LFB5412:
  73:Sequencer.h   **** 		uint16_t led = 0;
 1554              		.loc 10 73 11 is_stmt 1 view -0
 1555              		.cfi_startproc
 1556              		@ args = 0, pretend = 0, frame = 0
 1557              		@ frame_needed = 0, uses_anonymous_args = 0
 1558              		@ link register save eliminated.
 1559              	.LBB579:
  75:Sequencer.h   **** 			if (stepsArray[voiceID][i].Active()) led |= 1 << i;
 1560              		.loc 10 75 24 view .LVU362
  75:Sequencer.h   **** 			if (stepsArray[voiceID][i].Active()) led |= 1 << i;
 1561              		.loc 10 75 15 is_stmt 0 view .LVU363
 1562 0000 0023     		movs	r3, #0
 1563 0002 00EB0111 		add	r1, r0, r1, lsl #4
 1564              	.LVL107:
  75:Sequencer.h   **** 			if (stepsArray[voiceID][i].Active()) led |= 1 << i;
 1565              		.loc 10 75 15 view .LVU364
 1566              	.LBE579:
  74:Sequencer.h   **** 		for (size_t i = 0; i < steps; i++) {
 1567              		.loc 10 74 12 view .LVU365
 1568 0006 1846     		mov	r0, r3
 1569              	.LVL108:
 1570              	.L81:
 1571              	.LBB582:
 1572              	.LBB580:
 1573              	.LBI580:
  29:Sequencer.h   **** 	uint8_t GetVelocity() {return velocity & 127;}
 1574              		.loc 10 29 7 is_stmt 1 view .LVU366
 1575              	.LBB581:
  29:Sequencer.h   **** 	uint8_t GetVelocity() {return velocity & 127;}
ARM GAS  /var/folders/z5/_7t90xy14zq1swjhncg0p5z00000gn/T//ccqpyGtJ.s 			page 71


 1576              		.loc 10 29 17 view .LVU367
  29:Sequencer.h   **** 	uint8_t GetVelocity() {return velocity & 127;}
 1577              		.loc 10 29 17 is_stmt 0 view .LVU368
 1578              	.LBE581:
 1579              	.LBE580:
  76:Sequencer.h   **** 		}
 1580              		.loc 10 76 4 view .LVU369
 1581 0008 11F9012B 		ldrsb	r2, [r1], #1
 1582 000c 002A     		cmp	r2, #0
  76:Sequencer.h   **** 		}
 1583              		.loc 10 76 50 view .LVU370
 1584 000e BCBF     		itt	lt
 1585 0010 0122     		movlt	r2, #1
 1586 0012 9A40     		lsllt	r2, r2, r3
  75:Sequencer.h   **** 			if (stepsArray[voiceID][i].Active()) led |= 1 << i;
 1587              		.loc 10 75 3 view .LVU371
 1588 0014 03F10103 		add	r3, r3, #1
 1589              	.LVL109:
  76:Sequencer.h   **** 		}
 1590              		.loc 10 76 45 view .LVU372
 1591 0018 BCBF     		itt	lt
 1592 001a 1043     		orrlt	r0, r0, r2
 1593              	.LVL110:
  76:Sequencer.h   **** 		}
 1594              		.loc 10 76 45 view .LVU373
 1595 001c 80B2     		uxthlt	r0, r0
 1596              	.LVL111:
  75:Sequencer.h   **** 			if (stepsArray[voiceID][i].Active()) led |= 1 << i;
 1597              		.loc 10 75 3 is_stmt 1 view .LVU374
  75:Sequencer.h   **** 			if (stepsArray[voiceID][i].Active()) led |= 1 << i;
 1598              		.loc 10 75 24 view .LVU375
 1599 001e 102B     		cmp	r3, #16
 1600 0020 F2D1     		bne	.L81
 1601              	.LBE582:
  79:Sequencer.h   **** 
 1602              		.loc 10 79 2 is_stmt 0 view .LVU376
 1603 0022 7047     		bx	lr
 1604              		.cfi_endproc
 1605              	.LFE5412:
 1607              		.section	.text._Z13AudioCallbackPKPKfPPfj,"ax",%progbits
 1608              		.align	1
 1609              		.global	_Z13AudioCallbackPKPKfPPfj
 1610              		.syntax unified
 1611              		.thumb
 1612              		.thumb_func
 1614              	_Z13AudioCallbackPKPKfPPfj:
 1615              	.LVL112:
 1616              	.LFB4936:
 360:RM-38D.cpp    **** 	// get messages from main
 1617              		.loc 17 360 1 is_stmt 1 view -0
 1618              		.cfi_startproc
 1619              		@ args = 0, pretend = 0, frame = 16
 1620              		@ frame_needed = 0, uses_anonymous_args = 0
 362:RM-38D.cpp    **** 		ControlChangeMsg cc = controlChangeBuffer.ImmediateRead();
 1621              		.loc 17 362 2 view .LVU378
 1622              	.LBB679:
 1623              	.LBB680:
ARM GAS  /var/folders/z5/_7t90xy14zq1swjhncg0p5z00000gn/T//ccqpyGtJ.s 			page 72


 1624              	.LBI680:
  36:../../libDaisy//src/util/ringbuffer.h **** 
 1625              		.loc 19 36 19 view .LVU379
 1626              	.LBE680:
 1627              	.LBE679:
 360:RM-38D.cpp    **** 	// get messages from main
 1628              		.loc 17 360 1 is_stmt 0 view .LVU380
 1629 0000 2DE9F043 		push	{r4, r5, r6, r7, r8, r9, lr}
 1630              		.cfi_def_cfa_offset 28
 1631              		.cfi_offset 4, -28
 1632              		.cfi_offset 5, -24
 1633              		.cfi_offset 6, -20
 1634              		.cfi_offset 7, -16
 1635              		.cfi_offset 8, -12
 1636              		.cfi_offset 9, -8
 1637              		.cfi_offset 14, -4
 1638              	.LBB787:
 1639              	.LBB683:
 1640              	.LBB681:
  36:../../libDaisy//src/util/ringbuffer.h **** 
 1641              		.loc 19 36 46 view .LVU381
 1642 0004 C24F     		ldr	r7, .L144+16
 1643              	.LBE681:
 1644              	.LBE683:
 1645              	.LBE787:
 360:RM-38D.cpp    **** 	// get messages from main
 1646              		.loc 17 360 1 view .LVU382
 1647 0006 1546     		mov	r5, r2
 1648 0008 0C46     		mov	r4, r1
 1649 000a C24E     		ldr	r6, .L144+20
 1650              	.LBB788:
 1651              	.LBB684:
 1652              	.LBB682:
  36:../../libDaisy//src/util/ringbuffer.h **** 
 1653              		.loc 19 36 46 view .LVU383
 1654 000c D7F86431 		ldr	r3, [r7, #356]
  36:../../libDaisy//src/util/ringbuffer.h **** 
 1655              		.loc 19 36 59 view .LVU384
 1656 0010 D7F86021 		ldr	r2, [r7, #352]
 1657              	.LVL113:
  36:../../libDaisy//src/util/ringbuffer.h **** 
 1658              		.loc 19 36 57 view .LVU385
 1659 0014 9B1A     		subs	r3, r3, r2
 1660              	.LBE682:
 1661              	.LBE684:
 362:RM-38D.cpp    **** 		ControlChangeMsg cc = controlChangeBuffer.ImmediateRead();
 1662              		.loc 17 362 2 view .LVU386
 1663 0016 13F01F0F 		tst	r3, #31
 1664              	.LBE788:
 360:RM-38D.cpp    **** 	// get messages from main
 1665              		.loc 17 360 1 view .LVU387
 1666 001a 2DED028B 		vpush.64	{d8}
 1667              		.cfi_def_cfa_offset 36
 1668              		.cfi_offset 80, -36
 1669              		.cfi_offset 81, -32
 1670 001e 85B0     		sub	sp, sp, #20
 1671              		.cfi_def_cfa_offset 56
ARM GAS  /var/folders/z5/_7t90xy14zq1swjhncg0p5z00000gn/T//ccqpyGtJ.s 			page 73


 1672              	.LBB789:
 362:RM-38D.cpp    **** 		ControlChangeMsg cc = controlChangeBuffer.ImmediateRead();
 1673              		.loc 17 362 2 view .LVU388
 1674 0020 23D0     		beq	.L84
 1675              	.LBB685:
 363:RM-38D.cpp    **** 		if (cc.id == ControlChangeMsg::ID::SAMPLE_VOICE && cc.type == ControlChangeMsg::TYPE::GET) {
 1676              		.loc 17 363 3 is_stmt 1 view .LVU389
 1677              	.LVL114:
 1678              	.LBB686:
 1679              	.LBI686:
  59:../../libDaisy//src/util/ringbuffer.h ****     }
  60:../../libDaisy//src/util/ringbuffer.h **** 
  61:../../libDaisy//src/util/ringbuffer.h ****     /** Reads the first available element from the ring buffer
  62:../../libDaisy//src/util/ringbuffer.h ****     \return read value
  63:../../libDaisy//src/util/ringbuffer.h ****      */
  64:../../libDaisy//src/util/ringbuffer.h ****     inline T Read()
  65:../../libDaisy//src/util/ringbuffer.h ****     {
  66:../../libDaisy//src/util/ringbuffer.h ****         while(!readable())
  67:../../libDaisy//src/util/ringbuffer.h ****             ;
  68:../../libDaisy//src/util/ringbuffer.h ****         return ImmediateRead();
  69:../../libDaisy//src/util/ringbuffer.h ****     }
  70:../../libDaisy//src/util/ringbuffer.h **** 
  71:../../libDaisy//src/util/ringbuffer.h ****     /** Reads next element from ring buffer immediately
  72:../../libDaisy//src/util/ringbuffer.h ****     \return read value
  73:../../libDaisy//src/util/ringbuffer.h ****      */
  74:../../libDaisy//src/util/ringbuffer.h ****     inline T ImmediateRead()
 1680              		.loc 19 74 14 view .LVU390
 1681              	.LBB687:
  75:../../libDaisy//src/util/ringbuffer.h ****     {
  76:../../libDaisy//src/util/ringbuffer.h ****         size_t r      = read_ptr_;
 1682              		.loc 19 76 16 is_stmt 0 view .LVU391
 1683 0022 D7F86001 		ldr	r0, [r7, #352]
 1684              	.LVL115:
  77:../../libDaisy//src/util/ringbuffer.h ****         T      result = buffer_[r];
 1685              		.loc 19 77 16 view .LVU392
 1686 0026 0B23     		movs	r3, #11
 1687 0028 4343     		muls	r3, r0, r3
  78:../../libDaisy//src/util/ringbuffer.h ****         read_ptr_     = (r + 1) % size;
 1688              		.loc 19 78 28 view .LVU393
 1689 002a 0130     		adds	r0, r0, #1
 1690              	.LVL116:
  77:../../libDaisy//src/util/ringbuffer.h ****         T      result = buffer_[r];
 1691              		.loc 19 77 16 view .LVU394
 1692 002c FA5C     		ldrb	r2, [r7, r3]	@ zero_extendqisi2
 1693              	.LVL117:
  77:../../libDaisy//src/util/ringbuffer.h ****         T      result = buffer_[r];
 1694              		.loc 19 77 16 view .LVU395
 1695 002e 07EB030E 		add	lr, r7, r3
 1696              		.loc 19 78 33 view .LVU396
 1697 0032 00F01F00 		and	r0, r0, #31
 1698              	.LBE687:
 1699              	.LBE686:
 1700              	.LBB689:
 364:RM-38D.cpp    **** 			uint8_t voice = cc.data[0];
 1701              		.loc 17 364 3 view .LVU397
 1702 0036 042A     		cmp	r2, #4
 1703              	.LBE689:
ARM GAS  /var/folders/z5/_7t90xy14zq1swjhncg0p5z00000gn/T//ccqpyGtJ.s 			page 74


 1704              	.LBB775:
 1705              	.LBB688:
  77:../../libDaisy//src/util/ringbuffer.h ****         T      result = buffer_[r];
 1706              		.loc 19 77 16 view .LVU398
 1707 0038 9EF80130 		ldrb	r3, [lr, #1]	@ zero_extendqisi2
 1708              	.LVL118:
  77:../../libDaisy//src/util/ringbuffer.h ****         T      result = buffer_[r];
 1709              		.loc 19 77 16 view .LVU399
 1710 003c 9EF80210 		ldrb	r1, [lr, #2]	@ zero_extendqisi2
 1711              	.LVL119:
  77:../../libDaisy//src/util/ringbuffer.h ****         T      result = buffer_[r];
 1712              		.loc 19 77 16 view .LVU400
 1713 0040 9EF803C0 		ldrb	ip, [lr, #3]	@ zero_extendqisi2
 1714              	.LVL120:
 1715              		.loc 19 78 23 view .LVU401
 1716 0044 C7F86001 		str	r0, [r7, #352]
 1717              	.LVL121:
  77:../../libDaisy//src/util/ringbuffer.h ****         T      result = buffer_[r];
 1718              		.loc 19 77 16 view .LVU402
 1719 0048 9EF804E0 		ldrb	lr, [lr, #4]	@ zero_extendqisi2
 1720              	.LVL122:
  77:../../libDaisy//src/util/ringbuffer.h ****         T      result = buffer_[r];
 1721              		.loc 19 77 16 view .LVU403
 1722              	.LBE688:
 1723              	.LBE775:
 364:RM-38D.cpp    **** 			uint8_t voice = cc.data[0];
 1724              		.loc 17 364 3 is_stmt 1 view .LVU404
 1725              	.LBB776:
 1726 004c 40F0CE80 		bne	.L85
 364:RM-38D.cpp    **** 			uint8_t voice = cc.data[0];
 1727              		.loc 17 364 51 is_stmt 0 discriminator 1 view .LVU405
 1728 0050 012B     		cmp	r3, #1
 1729 0052 0AD1     		bne	.L84
 1730              	.LBB690:
 365:RM-38D.cpp    **** 			SendSampleVoice(sampleVoices[voice].GetGain(), sampleVoices[voice].GetPan());
 1731              		.loc 17 365 4 is_stmt 1 view .LVU406
 1732              	.LVL123:
 366:RM-38D.cpp    **** 
 1733              		.loc 17 366 4 view .LVU407
 1734              	.LBB691:
 1735              	.LBI691:
 1736              		.file 20 "SampleVoice.h"
   1:SampleVoice.h **** #pragma once
   2:SampleVoice.h **** #ifndef DSY_SAMPLE_VOICE_H
   3:SampleVoice.h **** #define DSY_SAMPLE_VOICE_H
   4:SampleVoice.h **** #include "daisy.h"
   5:SampleVoice.h **** 
   6:SampleVoice.h **** /** 
   7:SampleVoice.h ****     @author Hayden Barry
   8:SampleVoice.h ****     @date Febuary 2024
   9:SampleVoice.h **** */
  10:SampleVoice.h **** 
  11:SampleVoice.h **** using namespace daisy;
  12:SampleVoice.h **** 
  13:SampleVoice.h **** typedef struct {
  14:SampleVoice.h **** 	float left;
  15:SampleVoice.h **** 	float right;
ARM GAS  /var/folders/z5/_7t90xy14zq1swjhncg0p5z00000gn/T//ccqpyGtJ.s 			page 75


  16:SampleVoice.h **** } StereoSample;
  17:SampleVoice.h **** 
  18:SampleVoice.h **** class SampleVoice {
  19:SampleVoice.h **** private:
  20:SampleVoice.h **** 
  21:SampleVoice.h **** 	uint32_t bufferLength;
  22:SampleVoice.h **** 
  23:SampleVoice.h **** 
  24:SampleVoice.h **** 	size_t sample_length;
  25:SampleVoice.h **** 	size_t position;
  26:SampleVoice.h **** 	size_t startSample = 0;
  27:SampleVoice.h **** 	size_t endSample = 0;
  28:SampleVoice.h **** 
  29:SampleVoice.h **** 	bool playing;
  30:SampleVoice.h **** 	int16_t *buffer;
  31:SampleVoice.h **** 	FIL fp;
  32:SampleVoice.h **** 	char file_name[256];
  33:SampleVoice.h **** 	bool stereo;
  34:SampleVoice.h **** 	float gain = 0.5;
  35:SampleVoice.h **** 	float velocity_gain = 1.0;
  36:SampleVoice.h **** 	
  37:SampleVoice.h **** 
  38:SampleVoice.h **** 	/* A=\frac{\sqrt{2}}{2}(\cos x+\sin x)\left\{0\le x\le\frac{\pi}{4}\right\}
  39:SampleVoice.h **** 	   B=\frac{\sqrt{2}}{2}(\cos x-\sin x)\left\{0\le x\le\frac{\pi}{4}\right\}
  40:SampleVoice.h **** 	*/ 
  41:SampleVoice.h **** 	const float panTableA[51] = {0.7071067812,0.7181262978,0.7289686274,0.739631095,0.7501110696,0.760
  42:SampleVoice.h **** 	const float panTableB[51] = {0.7071067812,0.6959127966,0.6845471059,0.6730125135,0.6613118653,0.64
  43:SampleVoice.h **** 	int8_t pan = 0;
  44:SampleVoice.h **** public:
  45:SampleVoice.h **** 
  46:SampleVoice.h **** 	char *GetName();
  47:SampleVoice.h **** 	// buffer should be predefined in SDRAM
  48:SampleVoice.h **** 	void Init(int16_t *buffer, uint32_t bufferLength);
  49:SampleVoice.h **** 
  50:SampleVoice.h **** 	// starts sample playing. need to add handling of sample already playing.
  51:SampleVoice.h **** 	void Play(uint8_t velocity);
  52:SampleVoice.h **** 
  53:SampleVoice.h **** 	int8_t prev = 0;
  54:SampleVoice.h **** 	void IncrementPan(int8_t inc);
  55:SampleVoice.h **** 	void IncrementGain(int8_t inc, float amount);	
  56:SampleVoice.h **** 	void IncrementStartSample(int inc);
  57:SampleVoice.h **** 	void IncrementEndSample(int inc);
  58:SampleVoice.h **** 
  59:SampleVoice.h **** 	float GetGain() {return gain;}
 1737              		.loc 20 59 8 view .LVU408
 1738              	.LBB692:
 1739              		.loc 20 59 19 view .LVU409
 1740              		.loc 20 59 19 is_stmt 0 view .LVU410
 1741              	.LBE692:
 1742              	.LBE691:
 1743              	.LBB693:
 1744              	.LBI693:
  60:SampleVoice.h **** 	int8_t GetPan() {return pan;}
 1745              		.loc 20 60 9 is_stmt 1 view .LVU411
 1746              	.LBB694:
 1747              		.loc 20 60 19 view .LVU412
 1748              		.loc 20 60 26 is_stmt 0 view .LVU413
ARM GAS  /var/folders/z5/_7t90xy14zq1swjhncg0p5z00000gn/T//ccqpyGtJ.s 			page 76


 1749 0054 B04B     		ldr	r3, .L144+24
 1750              	.LVL124:
 1751              		.loc 20 60 26 view .LVU414
 1752 0056 4FF49E62 		mov	r2, #1264
 1753              	.LVL125:
 1754              		.loc 20 60 26 view .LVU415
 1755 005a 02FB0131 		mla	r1, r2, r1, r3
 1756              	.LVL126:
 1757              		.loc 20 60 26 view .LVU416
 1758              	.LBE694:
 1759              	.LBE693:
 366:RM-38D.cpp    **** 
 1760              		.loc 17 366 19 view .LVU417
 1761 005e 91F9EC04 		ldrsb	r0, [r1, #1260]
 1762 0062 91EDD30A 		vldr.32	s0, [r1, #844]
 1763              	.LVL127:
 1764              	.L139:
 366:RM-38D.cpp    **** 
 1765              		.loc 17 366 19 view .LVU418
 1766              	.LBE690:
 1767              	.LBB695:
 1768              	.LBB696:
 1769              	.LBB697:
 1770              	.LBB698:
 379:RM-38D.cpp    **** 
 1771              		.loc 17 379 19 view .LVU419
 1772 0066 FFF7FEFF 		bl	_Z15SendSampleVoicefa
 1773              	.LVL128:
 1774              	.L84:
 379:RM-38D.cpp    **** 
 1775              		.loc 17 379 19 view .LVU420
 1776              	.LBE698:
 1777              	.LBE697:
 1778              	.LBE696:
 1779              	.LBE695:
 1780              	.LBE776:
 1781              	.LBE685:
 1782              	.LBE789:
 405:RM-38D.cpp    **** 		float master_vol = GetVolume();
 1783              		.loc 17 405 2 is_stmt 1 view .LVU421
 1784              	.LBB790:
 1785 006a 3378     		ldrb	r3, [r6]	@ zero_extendqisi2
 1786 006c 002B     		cmp	r3, #0
 1787 006e 00F0B081 		beq	.L103
 1788              	.LBB791:
 406:RM-38D.cpp    **** 		for (size_t i = 0; i < size; i++) {
 1789              		.loc 17 406 3 view .LVU422
 406:RM-38D.cpp    **** 		for (size_t i = 0; i < size; i++) {
 1790              		.loc 17 406 31 is_stmt 0 view .LVU423
 1791 0072 FFF7FEFF 		bl	_Z9GetVolumev
 1792              	.LVL129:
 1793 0076 B0EE408A 		vmov.f32	s16, s0
 1794              	.LVL130:
 407:RM-38D.cpp    **** 			out[0][i] = 0;
 1795              		.loc 17 407 3 is_stmt 1 view .LVU424
 1796              	.LBB792:
